Certificate:
    Data:
        Version: 3 (0x2)
        Serial Number: 8 (0x8)
        Signature Algorithm: sha1WithRSAEncryption
        Issuer: C=DE, ST=Berlin, L=Berlin, O=Example Com, OU=Operations, CN=Certificate Signing Authority/emailAddress=hostmaster@example.com
        Validity
            Not Before: Mar 15 10:02:37 2012 GMT
            Not After : Mar 15 10:02:37 2013 GMT
        Subject: C=DE, ST=Berlin, L=Berlin, O=Example Com, OU=Operations, CN=a.xnull-ns.de
        Subject Public Key Info:
            Public Key Algorithm: rsaEncryption
                Public-Key: (2048 bit)
                Modulus:
                    00:d8:f3:9a:ef:a2:2e:fc:97:7f:c7:35:3b:57:db:
                    a6:76:7e:e6:f2:16:6e:9a:84:d4:0b:f2:ee:b6:9f:
                    bf:8e:78:6b:4a:84:a2:c1:09:ce:11:5e:ed:ca:ff:
                    90:24:74:fa:55:fd:85:e5:74:6c:57:9a:94:01:b9:
                    17:7d:26:d8:f7:40:3f:11:65:cc:3e:23:b4:33:69:
                    b4:f0:47:1d:fe:f5:15:a7:f8:bb:d4:e5:d3:5b:c9:
                    a3:ea:93:87:c5:97:57:6b:8c:21:ea:0d:26:9a:e6:
                    c8:31:cb:da:18:9d:3c:d7:e6:46:03:74:11:29:c8:
                    16:36:8f:df:55:68:d0:e6:f5:10:08:96:33:e3:76:
                    26:cd:08:c3:43:6a:13:38:56:6d:c8:13:51:3a:b3:
                    87:1b:c5:30:97:8c:75:dc:6e:f2:5b:4b:70:55:72:
                    8c:ab:d7:6f:39:dc:14:db:81:96:11:8e:36:af:8c:
                    42:73:5d:e0:14:9f:29:61:c9:54:65:86:e4:6b:4d:
                    34:5d:93:88:f5:c4:64:55:ce:48:e2:e6:3a:fb:23:
                    33:97:de:75:44:c2:0c:c3:29:01:a4:77:a9:f5:0e:
                    b3:82:54:e9:d9:f1:a3:79:f2:07:29:fa:b2:ca:cf:
                    00:37:73:f6:64:5e:e9:fa:93:f6:cd:83:11:34:28:
                    96:39
                Exponent: 65537 (0x10001)
        X509v3 extensions:
            X509v3 Basic Constraints: 
                CA:FALSE
            X509v3 Subject Key Identifier: 
                E9:93:F1:D6:28:28:87:89:92:6F:E2:65:38:99:A0:56:B7:C1:6F:91
            X509v3 Authority Key Identifier: 
                keyid:50:33:E6:BF:4D:B3:66:AA:26:97:06:9B:DB:57:24:DF:C1:49:66:E3

    Signature Algorithm: sha1WithRSAEncryption
        40:17:d9:f7:7e:68:62:d7:d8:a7:6e:34:44:ba:a0:43:1d:6a:
        cb:8c:2b:a6:6f:82:52:45:fa:d5:7a:cf:d4:54:f0:65:fe:9d:
        d5:b9:d0:eb:ae:d1:14:90:86:09:88:02:15:8c:3c:12:30:09:
        a1:e0:3f:ed:c2:1f:c7:06:aa:5f:fb:57:c8:10:3b:be:b7:d9:
        62:9d:41:7d:85:5e:0a:be:97:eb:d5:be:cf:c7:ef:0a:48:d8:
        c5:76:da:63:b7:5f:49:78:b0:7e:6a:b7:e5:62:a3:d3:b2:a3:
        ee:e8:91:18:65:2a:11:9b:38:04:40:e4:96:9e:0a:25:83:69:
        bd:fb:4c:01:e9:15:98:e2:36:6f:26:39:f2:96:34:0c:3f:0d:
        c3:5b:8e:6a:33:bd:20:fa:f7:38:69:cd:d0:50:dd:20:2f:84:
        fe:7f:ee:6f:d2:13:83:51:d1:92:2b:7e:b3:51:ec:c1:13:8e:
        b4:26:25:af:9e:64:f5:8e:80:ae:75:9b:01:88:be:89:5d:b9:
        97:31:1c:2a:2b:b7:21:6b:87:28:53:6c:7c:4e:c3:86:02:cc:
        de:b4:a7:b8:62:9c:6f:86:28:c2:ab:5c:17:cf:e7:f4:d9:62:
        bc:d7:2e:d9:35:4a:b5:45:ce:cb:1d:a7:4a:37:c6:21:bd:74:
        7f:71:e0:38:eb:ff:57:1d:69:d4:2e:0d:3d:92:42:ff:38:12:
        3c:5e:92:27:45:cf:2e:96:fa:21:f1:6c:c2:12:fc:a6:70:c5:
        cd:c8:02:e3:4e:66:55:2b:0c:1d:49:ed:59:83:07:ed:22:0e:
        98:69:13:d3:df:dc:73:df:dd:76:c0:51:38:2c:3d:38:17:65:
        39:5f:24:43:81:f3:f6:89:33:4d:08:19:90:a5:a5:58:e2:d2:
        6c:04:67:b5:0e:78:f1:32:9f:88:74:ba:06:74:da:c2:87:84:
        b4:38:c2:4d:3d:26:ea:ac:9f:a3:82:5b:7d:11:40:58:8b:3e:
        39:19:fa:b5:1f:80:2f:f2:b1:df:b7:83:68:fe:96:bc:45:73:
        24:dd:b2:44:55:12:9a:47:e8:7e:81:79:ca:c0:c8:d4:27:68:
        8d:4c:9f:50:a8:dd:76:33:fc:e8:c8:fc:9e:4e:2b:24:f4:a4:
        8e:e1:49:65:81:9f:25:c6:3b:8b:5f:0f:81:d7:56:9d:63:31:
        66:7b:d7:88:c8:32:d5:5e:66:c5:0e:cd:00:63:da:03:71:28:
        11:eb:67:34:53:07:bd:3f:68:75:99:d7:6c:60:83:fb:cc:5c:
        2b:22:56:64:c0:dc:58:a1:91:d5:e8:87:fa:b6:c4:8d:9e:ba:
        b8:2c:c8:6b:c6:3e:13:ee
-----BEGIN CERTIFICATE-----
MIIE5DCCAsygAwIBAgIBCDANBgkqhkiG9w0BAQUFADCBqTELMAkGA1UEBhMCREUx
DzANBgNVBAgTBkJlcmxpbjEPMA0GA1UEBxMGQmVybGluMRQwEgYDVQQKEwtFeGFt
cGxlIENvbTETMBEGA1UECxMKT3BlcmF0aW9uczEmMCQGA1UEAxMdQ2VydGlmaWNh
dGUgU2lnbmluZyBBdXRob3JpdHkxJTAjBgkqhkiG9w0BCQEWFmhvc3RtYXN0ZXJA
ZXhhbXBsZS5jb20wHhcNMTIwMzE1MTAwMjM3WhcNMTMwMzE1MTAwMjM3WjByMQsw
CQYDVQQGEwJERTEPMA0GA1UECBMGQmVybGluMQ8wDQYDVQQHEwZCZXJsaW4xFDAS
BgNVBAoTC0V4YW1wbGUgQ29tMRMwEQYDVQQLEwpPcGVyYXRpb25zMRYwFAYDVQQD
Ew1hLnhudWxsLW5zLmRlMIIBIjANBgkqhkiG9w0BAQEFAAOCAQ8AMIIBCgKCAQEA
2POa76Iu/Jd/xzU7V9umdn7m8hZumoTUC/Lutp+/jnhrSoSiwQnOEV7tyv+QJHT6
Vf2F5XRsV5qUAbkXfSbY90A/EWXMPiO0M2m08Ecd/vUVp/i71OXTW8mj6pOHxZdX
a4wh6g0mmubIMcvaGJ081+ZGA3QRKcgWNo/fVWjQ5vUQCJYz43YmzQjDQ2oTOFZt
yBNROrOHG8Uwl4x13G7yW0twVXKMq9dvOdwU24GWEY42r4xCc13gFJ8pYclUZYbk
a000XZOI9cRkVc5I4uY6+yMzl951RMIMwykBpHep9Q6zglTp2fGjefIHKfqyys8A
N3P2ZF7p+pP2zYMRNCiWOQIDAQABo00wSzAJBgNVHRMEAjAAMB0GA1UdDgQWBBTp
k/HWKCiHiZJv4mU4maBWt8FvkTAfBgNVHSMEGDAWgBRQM+a/TbNmqiaXBpvbVyTf
wUlm4zANBgkqhkiG9w0BAQUFAAOCAgEAQBfZ935oYtfYp240RLqgQx1qy4wrpm+C
UkX61XrP1FTwZf6d1bnQ667RFJCGCYgCFYw8EjAJoeA/7cIfxwaqX/tXyBA7vrfZ
Yp1BfYVeCr6X69W+z8fvCkjYxXbaY7dfSXiwfmq35WKj07Kj7uiRGGUqEZs4BEDk
lp4KJYNpvftMAekVmOI2byY58pY0DD8Nw1uOajO9IPr3OGnN0FDdIC+E/n/ub9IT
g1HRkit+s1HswROOtCYlr55k9Y6ArnWbAYi+iV25lzEcKiu3IWuHKFNsfE7DhgLM
3rSnuGKcb4YowqtcF8/n9NlivNcu2TVKtUXOyx2nSjfGIb10f3HgOOv/Vx1p1C4N
PZJC/zgSPF6SJ0XPLpb6IfFswhL8pnDFzcgC405mVSsMHUntWYMH7SIOmGkT09/c
c9/ddsBROCw9OBdlOV8kQ4Hz9okzTQgZkKWlWOLSbARntQ548TKfiHS6BnTawoeE
tDjCTT0m6qyfo4JbfRFAWIs+ORn6tR+AL/Kx37eDaP6WvEVzJN2yRFUSmkfofoF5
ysDI1CdojUyfUKjddjP86Mj8nk4rJPSkjuFJZYGfJcY7i18PgddWnWMxZnvXiMgy
1V5mxQ7NAGPaA3EoEetnNFMHvT9odZnXbGCD+8xcKyJWZMDcWKGR1eiH+rbEjZ66
uCzIa8Y+E+4=
-----END CERTIFICATE-----
