Certificate:
    Data:
        Version: 3 (0x2)
        Serial Number: 1 (0x1)
    Signature Algorithm: sha1WithRSAEncryption
        Issuer: C=DE, ST=Berlin, L=Berlin, O=ZenOps, OU=Operations, CN=Certificate Signing Authority/emailAddress=hostmaster@zenops.de
        Validity
            Not Before: Mar  9 09:53:47 2013 GMT
            Not After : Mar  9 09:53:47 2014 GMT
        Subject: C=DE, ST=Berlin, L=Berlin, O=ZenOps, OU=Operations, CN=app1.kanbanero.net
        Subject Public Key Info:
            Public Key Algorithm: rsaEncryption
                Public-Key: (2048 bit)
                Modulus:
                    00:d2:f9:4f:ee:02:7a:d8:83:ec:5f:89:37:2f:e4:
                    0c:3f:a1:54:98:ff:a5:a1:67:90:e7:01:12:9d:d2:
                    6e:1d:85:27:e1:0a:3b:35:31:a3:71:54:f3:77:dc:
                    d9:db:9f:4c:02:3d:2f:50:c0:5a:e7:b1:61:1e:6c:
                    2a:0e:87:55:d8:46:d3:37:7e:de:2b:75:f4:0e:c7:
                    e1:0a:f0:e0:cb:25:5b:31:b9:3f:47:4b:21:2a:b8:
                    d2:59:0a:b5:20:4d:95:e7:c6:0b:2a:07:d6:99:19:
                    47:76:f2:2f:20:bf:e4:1e:74:52:44:dc:6a:1e:71:
                    45:e0:a7:aa:02:90:3e:23:7d:5e:95:28:7a:b9:08:
                    26:b7:3c:37:72:69:1f:42:44:1f:67:0d:84:16:f9:
                    c1:c5:11:de:ba:d3:2b:51:8b:7c:e2:cc:93:fd:0a:
                    95:3e:e4:a9:8b:6f:ea:00:3f:f7:88:81:31:81:4d:
                    0d:6a:07:b9:c3:1a:8b:97:34:a3:2f:eb:b1:dd:61:
                    0e:c5:54:c7:9a:4f:99:97:31:b1:fb:df:0d:5b:16:
                    cc:7d:64:e1:31:91:b1:31:fb:33:7d:16:29:dc:1d:
                    8a:6b:a7:3e:11:09:2a:51:1c:a9:d3:ac:90:cb:48:
                    24:d9:90:77:41:e9:3a:a9:82:fb:ec:64:17:09:ce:
                    ca:11
                Exponent: 65537 (0x10001)
        X509v3 extensions:
            X509v3 Basic Constraints: 
                CA:FALSE
            X509v3 Subject Key Identifier: 
                73:85:FA:2A:D4:F5:42:46:B4:AB:28:49:46:1D:BC:AB:91:52:39:48
            X509v3 Authority Key Identifier: 
                keyid:4F:4D:64:16:D3:0B:30:0C:96:E3:86:E8:D2:0F:68:20:CF:D0:DC:CD

    Signature Algorithm: sha1WithRSAEncryption
         93:99:18:69:a9:52:26:f9:94:89:fc:5b:23:b7:13:fc:dc:85:
         20:60:97:80:1d:05:cd:4a:b2:40:39:e9:12:c5:a2:74:f9:3f:
         b1:a5:50:0e:56:22:27:b4:d7:55:64:8e:5f:8d:9c:8a:c7:fc:
         0d:3d:c7:3d:c1:fd:bf:cc:67:08:e8:ea:e0:3f:4d:8b:3f:7f:
         10:5b:a4:6a:c0:88:ba:6a:a8:97:a1:12:4c:8c:ea:77:9c:08:
         63:96:d5:0d:da:9f:d8:82:16:70:ef:38:6d:45:bd:4f:8f:fa:
         3f:65:99:07:bd:e8:85:e6:ac:44:e5:d0:8a:66:ab:1a:8c:83:
         e3:5c:ac:9c:83:6d:c6:d2:2b:a7:2e:ca:a3:3b:49:81:61:55:
         e7:9a:35:03:b7:e9:db:7f:45:5c:ec:e5:78:de:37:3d:96:11:
         e1:fc:da:85:89:03:4e:7c:81:19:46:fa:98:cf:0d:a5:ed:ec:
         93:2a:20:b2:a8:c4:db:54:fd:e7:f7:8f:99:ca:24:6a:83:e0:
         a4:6f:21:ae:fc:db:ae:3b:fc:48:0f:80:85:64:38:99:ac:14:
         d4:d9:29:4b:fd:5d:33:ce:30:f5:3a:57:b9:96:07:be:ee:75:
         1a:18:1e:c1:ce:56:c5:6c:26:b0:a3:53:ed:5d:c7:8d:4d:f8:
         30:22:ef:2b:15:5c:0c:cd:df:6b:16:5e:5a:8b:a1:fb:9c:cb:
         0b:d7:db:2a:bb:20:9f:c1:cc:1b:f3:dc:57:08:7f:27:c1:80:
         63:f7:fa:7b:37:8c:3a:82:a9:90:8e:d8:7b:17:69:14:a2:b2:
         cd:f5:b7:c5:e0:29:bd:4c:1f:f3:14:b3:1f:9c:92:98:36:cf:
         63:a2:3e:1e:b1:38:5a:a4:00:35:34:6d:55:04:3d:d6:01:bb:
         30:1a:61:0d:0d:30:57:39:4b:9b:0a:77:a7:7b:b5:79:2b:b3:
         d6:c3:6b:c2:c2:c0:a7:c1:0d:03:02:f3:98:b5:f0:23:33:7c:
         a8:92:42:97:a9:76:e3:1f:1f:c4:1a:b4:16:b4:bb:b4:58:14:
         df:cc:df:9d:e6:3b:6a:f2:23:53:08:62:e4:d5:e4:80:2e:7e:
         8a:82:2a:0f:73:bc:c5:c6:44:9a:1d:0f:05:e4:31:ce:a7:c2:
         58:48:6a:6e:82:ec:bf:79:bb:1e:f2:09:f3:01:63:38:2a:c5:
         02:fd:36:c6:97:8d:27:b9:86:45:e2:90:f5:5c:09:cc:69:03:
         cd:09:b2:42:95:bd:27:0f:c6:e7:7b:e5:71:d6:89:d8:ce:a1:
         c6:9b:fd:61:bc:c5:56:50:91:ae:96:ed:83:b6:99:91:c9:4a:
         61:8f:42:39:b4:88:1b:18
-----BEGIN CERTIFICATE-----
MIIE3TCCAsWgAwIBAgIBATANBgkqhkiG9w0BAQUFADCBojELMAkGA1UEBhMCREUx
DzANBgNVBAgTBkJlcmxpbjEPMA0GA1UEBxMGQmVybGluMQ8wDQYDVQQKEwZaZW5P
cHMxEzARBgNVBAsTCk9wZXJhdGlvbnMxJjAkBgNVBAMTHUNlcnRpZmljYXRlIFNp
Z25pbmcgQXV0aG9yaXR5MSMwIQYJKoZIhvcNAQkBFhRob3N0bWFzdGVyQHplbm9w
cy5kZTAeFw0xMzAzMDkwOTUzNDdaFw0xNDAzMDkwOTUzNDdaMHIxCzAJBgNVBAYT
AkRFMQ8wDQYDVQQIEwZCZXJsaW4xDzANBgNVBAcTBkJlcmxpbjEPMA0GA1UEChMG
WmVuT3BzMRMwEQYDVQQLEwpPcGVyYXRpb25zMRswGQYDVQQDExJhcHAxLmthbmJh
bmVyby5uZXQwggEiMA0GCSqGSIb3DQEBAQUAA4IBDwAwggEKAoIBAQDS+U/uAnrY
g+xfiTcv5Aw/oVSY/6WhZ5DnARKd0m4dhSfhCjs1MaNxVPN33Nnbn0wCPS9QwFrn
sWEebCoOh1XYRtM3ft4rdfQOx+EK8ODLJVsxuT9HSyEquNJZCrUgTZXnxgsqB9aZ
GUd28i8gv+QedFJE3GoecUXgp6oCkD4jfV6VKHq5CCa3PDdyaR9CRB9nDYQW+cHF
Ed660ytRi3zizJP9CpU+5KmLb+oAP/eIgTGBTQ1qB7nDGouXNKMv67HdYQ7FVMea
T5mXMbH73w1bFsx9ZOExkbEx+zN9FincHYprpz4RCSpRHKnTrJDLSCTZkHdB6Tqp
gvvsZBcJzsoRAgMBAAGjTTBLMAkGA1UdEwQCMAAwHQYDVR0OBBYEFHOF+irU9UJG
tKsoSUYdvKuRUjlIMB8GA1UdIwQYMBaAFE9NZBbTCzAMluOG6NIPaCDP0NzNMA0G
CSqGSIb3DQEBBQUAA4ICAQCTmRhpqVIm+ZSJ/FsjtxP83IUgYJeAHQXNSrJAOekS
xaJ0+T+xpVAOViIntNdVZI5fjZyKx/wNPcc9wf2/zGcI6OrgP02LP38QW6RqwIi6
aqiXoRJMjOp3nAhjltUN2p/YghZw7zhtRb1Pj/o/ZZkHveiF5qxE5dCKZqsajIPj
XKycg23G0iunLsqjO0mBYVXnmjUDt+nbf0Vc7OV43jc9lhHh/NqFiQNOfIEZRvqY
zw2l7eyTKiCyqMTbVP3n94+ZyiRqg+CkbyGu/NuuO/xID4CFZDiZrBTU2SlL/V0z
zjD1Ole5lge+7nUaGB7BzlbFbCawo1PtXceNTfgwIu8rFVwMzd9rFl5ai6H7nMsL
19squyCfwcwb89xXCH8nwYBj9/p7N4w6gqmQjth7F2kUorLN9bfF4Cm9TB/zFLMf
nJKYNs9joj4esThapAA1NG1VBD3WAbswGmENDTBXOUubCnene7V5K7PWw2vCwsCn
wQ0DAvOYtfAjM3yokkKXqXbjHx/EGrQWtLu0WBTfzN+d5jtq8iNTCGLk1eSALn6K
gioPc7zFxkSaHQ8F5DHOp8JYSGpuguy/ebse8gnzAWM4KsUC/TbGl40nuYZF4pD1
XAnMaQPNCbJClb0nD8bne+Vx1onYzqHGm/1hvMVWUJGulu2DtpmRyUphj0I5tIgb
GA==
-----END CERTIFICATE-----
