Certificate:
    Data:
        Version: 3 (0x2)
        Serial Number: 22 (0x16)
        Signature Algorithm: sha1WithRSAEncryption
        Issuer: C=DE, ST=Berlin, L=Berlin, O=Example Com, OU=Operations, CN=Certificate Signing Authority/emailAddress=hostmaster@example.com
        Validity
            Not Before: Sep 22 13:03:09 2012 GMT
            Not After : Sep 22 13:03:09 2013 GMT
        Subject: C=DE, ST=Berlin, L=Berlin, O=Example Com, OU=Operations, CN=app1.kanbanero.net
        Subject Public Key Info:
            Public Key Algorithm: rsaEncryption
                Public-Key: (2048 bit)
                Modulus:
                    00:c1:db:48:00:19:fc:c8:6a:19:06:88:ed:51:23:
                    73:19:a9:f8:6a:f1:24:d8:3b:8c:59:5d:5a:a2:45:
                    09:58:a6:45:fd:66:2f:8a:27:75:9a:6e:2e:09:87:
                    02:6f:61:1b:b3:5d:fd:58:e8:63:59:45:0f:d6:67:
                    e3:3f:48:24:47:07:40:73:40:1b:ae:0c:af:c3:30:
                    2a:d7:43:8b:84:bb:cb:21:56:a3:e8:e6:fc:1a:28:
                    b0:48:6c:53:ee:cf:55:e2:51:ba:c4:7d:1a:c2:3e:
                    fc:63:ff:bb:1e:06:59:01:2b:be:9c:d7:88:b1:5e:
                    fb:03:3e:23:54:d3:58:e5:26:2e:ae:76:b5:66:a3:
                    f1:9c:b0:32:a3:55:d5:8c:86:6f:41:f3:e9:21:c8:
                    4a:b0:f6:8d:72:bb:f0:87:40:3d:ca:15:d0:7a:88:
                    d1:aa:15:b0:7a:0b:78:c7:ec:18:d3:b7:10:d1:12:
                    34:f2:1f:94:7b:97:4e:6d:f7:ff:e1:ba:d8:f3:97:
                    f9:71:08:f0:9a:7e:93:7a:5c:73:8b:fd:9b:ca:82:
                    8d:28:53:1f:3c:70:c2:83:a1:af:7b:3e:71:7d:a8:
                    44:60:a8:e4:76:36:b6:82:0f:12:7b:10:78:94:78:
                    b8:df:07:48:59:ac:d2:35:3e:73:ea:26:88:c4:d0:
                    a1:89
                Exponent: 65537 (0x10001)
        X509v3 extensions:
            X509v3 Basic Constraints: 
                CA:FALSE
            X509v3 Subject Key Identifier: 
                DE:1D:CE:7A:0F:EF:79:E8:60:C7:54:4F:D6:4F:84:88:00:BC:A0:C5
            X509v3 Authority Key Identifier: 
                keyid:50:33:E6:BF:4D:B3:66:AA:26:97:06:9B:DB:57:24:DF:C1:49:66:E3

    Signature Algorithm: sha1WithRSAEncryption
        9e:6d:9f:dc:f1:3d:87:53:98:ac:fc:7c:a4:9d:4a:a9:70:7e:
        3c:19:e6:04:e5:66:e6:93:48:6d:cf:e2:e1:16:e6:07:82:10:
        cb:19:cf:67:71:ce:46:5f:e0:44:b6:a6:78:b7:41:39:fd:cc:
        18:d0:72:66:fd:a9:7f:b0:2a:5a:85:75:67:17:a2:d5:e9:67:
        9c:bb:63:28:ff:4d:b7:62:7b:83:ad:13:c2:f2:9f:3a:75:81:
        ed:1d:0e:1a:bf:cc:ee:18:0f:9b:67:fd:d0:55:38:72:5e:3e:
        bc:43:f5:52:07:64:9c:f8:e0:e4:e5:ee:93:5b:3d:59:4b:8c:
        00:2e:50:5a:87:9e:be:33:11:75:a0:67:70:0e:ea:dc:48:a3:
        dd:ba:33:37:d3:56:4f:4b:69:07:5f:4b:e1:a1:90:2d:15:87:
        78:b4:7d:6c:96:1f:22:03:67:25:c5:b1:a8:b4:da:91:c1:a6:
        d0:c0:78:43:28:69:2f:93:4c:71:e7:80:d5:25:b4:4f:77:4d:
        df:77:af:00:ec:70:42:c5:f6:90:77:d3:e8:11:ef:42:43:25:
        a9:9e:80:d9:ce:7e:8b:66:20:08:1f:3c:61:3f:3e:d0:a0:c1:
        45:80:c6:cd:15:8a:fc:78:a7:d3:82:ee:38:69:9a:a7:81:c7:
        00:77:9f:cc:e6:b2:90:e0:0b:96:a2:5b:11:7a:ed:4f:57:9a:
        6b:6f:bc:09:7b:05:7f:4f:76:1c:1c:5f:44:7f:20:b5:69:07:
        c1:36:4f:23:5b:11:5d:bf:78:a2:16:0a:16:64:01:82:31:14:
        e1:1b:f1:40:74:41:90:a9:c0:ba:ec:d7:10:9f:b3:a1:35:93:
        e6:26:be:26:3c:f4:64:7e:f3:af:63:19:0e:b6:9f:72:77:a5:
        0e:08:bf:3e:83:10:90:b1:02:7d:71:64:af:55:ab:60:ad:18:
        2b:29:28:43:07:cf:64:98:c9:fd:69:f6:4c:a5:d3:3d:bc:ce:
        34:1b:e1:af:ba:9d:71:3f:0b:16:69:d3:20:b5:10:19:b7:e6:
        48:0e:cb:50:ae:c9:6b:6b:eb:6e:65:12:b1:d9:8b:ac:a2:d6:
        3a:e2:31:cf:e0:9a:50:bc:5f:b6:bc:ba:de:99:f2:3b:4c:b3:
        9e:14:a1:c3:e0:3b:c6:7c:f1:b9:ad:56:e1:26:d0:b4:16:10:
        60:08:75:ed:1e:cb:6c:5f:30:fa:a9:42:f4:02:9c:d6:97:e2:
        32:3b:53:bf:18:09:96:2a:4a:c8:8e:4b:ee:a6:95:1a:df:1f:
        49:5c:61:6a:92:b8:36:7a:e4:cb:2d:a0:7c:68:3a:cb:d4:ac:
        2d:a0:24:83:42:da:f0:48
-----BEGIN CERTIFICATE-----
MIIE6TCCAtGgAwIBAgIBFjANBgkqhkiG9w0BAQUFADCBqTELMAkGA1UEBhMCREUx
DzANBgNVBAgTBkJlcmxpbjEPMA0GA1UEBxMGQmVybGluMRQwEgYDVQQKEwtFeGFt
cGxlIENvbTETMBEGA1UECxMKT3BlcmF0aW9uczEmMCQGA1UEAxMdQ2VydGlmaWNh
dGUgU2lnbmluZyBBdXRob3JpdHkxJTAjBgkqhkiG9w0BCQEWFmhvc3RtYXN0ZXJA
ZXhhbXBsZS5jb20wHhcNMTIwOTIyMTMwMzA5WhcNMTMwOTIyMTMwMzA5WjB3MQsw
CQYDVQQGEwJERTEPMA0GA1UECBMGQmVybGluMQ8wDQYDVQQHEwZCZXJsaW4xFDAS
BgNVBAoTC0V4YW1wbGUgQ29tMRMwEQYDVQQLEwpPcGVyYXRpb25zMRswGQYDVQQD
ExJhcHAxLmthbmJhbmVyby5uZXQwggEiMA0GCSqGSIb3DQEBAQUAA4IBDwAwggEK
AoIBAQDB20gAGfzIahkGiO1RI3MZqfhq8STYO4xZXVqiRQlYpkX9Zi+KJ3Wabi4J
hwJvYRuzXf1Y6GNZRQ/WZ+M/SCRHB0BzQBuuDK/DMCrXQ4uEu8shVqPo5vwaKLBI
bFPuz1XiUbrEfRrCPvxj/7seBlkBK76c14ixXvsDPiNU01jlJi6udrVmo/GcsDKj
VdWMhm9B8+khyEqw9o1yu/CHQD3KFdB6iNGqFbB6C3jH7BjTtxDREjTyH5R7l05t
9//hutjzl/lxCPCafpN6XHOL/ZvKgo0oUx88cMKDoa97PnF9qERgqOR2NraCDxJ7
EHiUeLjfB0hZrNI1PnPqJojE0KGJAgMBAAGjTTBLMAkGA1UdEwQCMAAwHQYDVR0O
BBYEFN4dznoP73noYMdUT9ZPhIgAvKDFMB8GA1UdIwQYMBaAFFAz5r9Ns2aqJpcG
m9tXJN/BSWbjMA0GCSqGSIb3DQEBBQUAA4ICAQCebZ/c8T2HU5is/HyknUqpcH48
GeYE5Wbmk0htz+LhFuYHghDLGc9ncc5GX+BEtqZ4t0E5/cwY0HJm/al/sCpahXVn
F6LV6Wecu2Mo/023YnuDrRPC8p86dYHtHQ4av8zuGA+bZ/3QVThyXj68Q/VSB2Sc
+ODk5e6TWz1ZS4wALlBah56+MxF1oGdwDurcSKPdujM301ZPS2kHX0vhoZAtFYd4
tH1slh8iA2clxbGotNqRwabQwHhDKGkvk0xx54DVJbRPd03fd68A7HBCxfaQd9Po
Ee9CQyWpnoDZzn6LZiAIHzxhPz7QoMFFgMbNFYr8eKfTgu44aZqngccAd5/M5rKQ
4AuWolsReu1PV5prb7wJewV/T3YcHF9EfyC1aQfBNk8jWxFdv3iiFgoWZAGCMRTh
G/FAdEGQqcC67NcQn7OhNZPmJr4mPPRkfvOvYxkOtp9yd6UOCL8+gxCQsQJ9cWSv
VatgrRgrKShDB89kmMn9afZMpdM9vM40G+Gvup1xPwsWadMgtRAZt+ZIDstQrslr
a+tuZRKx2YusotY64jHP4JpQvF+2vLremfI7TLOeFKHD4DvGfPG5rVbhJtC0FhBg
CHXtHstsXzD6qUL0ApzWl+IyO1O/GAmWKkrIjkvuppUa3x9JXGFqkrg2euTLLaB8
aDrL1KwtoCSDQtrwSA==
-----END CERTIFICATE-----
