Certificate:
    Data:
        Version: 3 (0x2)
        Serial Number: 7 (0x7)
        Signature Algorithm: sha1WithRSAEncryption
        Issuer: C=DE, ST=Berlin, L=Berlin, O=Example Com, OU=Operations, CN=Certificate Signing Authority/emailAddress=hostmaster@example.com
        Validity
            Not Before: Mar 15 09:46:39 2012 GMT
            Not After : Mar 15 09:46:39 2013 GMT
        Subject: C=DE, ST=Berlin, L=Berlin, O=Example Com, OU=Operations, CN=b.xnull-ns.de
        Subject Public Key Info:
            Public Key Algorithm: rsaEncryption
                Public-Key: (2048 bit)
                Modulus:
                    00:a1:de:3c:19:0d:88:ba:0f:3c:e7:47:25:ef:b3:
                    37:19:dc:77:a7:0a:45:6b:91:5f:aa:97:26:5a:11:
                    bf:dc:3e:0f:76:3c:21:c4:80:da:aa:b5:f7:79:2f:
                    2b:70:81:be:74:9a:c6:1c:08:60:5f:3a:e3:b0:05:
                    72:25:65:c0:f1:48:f0:92:5b:0b:d2:1e:2e:c7:01:
                    88:27:d1:f1:87:3f:3f:a3:e7:2b:02:f9:0c:e5:18:
                    74:38:b3:97:b4:36:01:af:bb:60:75:28:dd:a1:7d:
                    00:49:a5:77:e9:dd:fc:46:ef:f6:88:18:40:e7:41:
                    67:6a:d9:51:13:22:5e:0b:b5:df:7d:e4:cd:9d:3c:
                    c8:b2:41:ca:30:04:08:5a:86:33:b2:87:e2:d9:34:
                    83:2c:72:46:7d:c9:42:a3:bd:b1:d1:b1:85:0c:2c:
                    fd:79:38:e9:4e:0d:5f:dd:fd:35:00:ef:c4:ed:e2:
                    68:92:f2:38:60:90:f4:78:c5:8c:da:d3:a8:19:ec:
                    f0:14:f0:56:e6:ef:39:fe:e5:fb:c7:58:61:fb:e4:
                    49:6f:1a:ea:80:76:0a:83:bf:fd:23:52:f7:8e:51:
                    e4:a0:c0:f0:39:0b:a9:94:69:1d:9a:bf:a7:0c:3a:
                    0c:32:02:f7:f3:6c:ca:b5:7f:70:48:92:51:ca:ed:
                    15:c9
                Exponent: 65537 (0x10001)
        X509v3 extensions:
            X509v3 Basic Constraints: 
                CA:FALSE
            X509v3 Subject Key Identifier: 
                3B:9F:B7:7E:E1:E5:E5:D7:B8:52:22:E6:D3:6E:DA:71:A9:34:41:B5
            X509v3 Authority Key Identifier: 
                keyid:50:33:E6:BF:4D:B3:66:AA:26:97:06:9B:DB:57:24:DF:C1:49:66:E3

    Signature Algorithm: sha1WithRSAEncryption
        33:70:a7:fb:a6:54:07:1b:e2:73:de:01:64:86:94:92:28:7d:
        a6:4f:b2:2d:01:ae:11:86:4f:f9:00:dd:0c:89:46:3d:26:9a:
        55:f9:63:0b:bd:fb:0d:6b:3e:a9:50:a6:24:43:97:76:d7:6f:
        c3:1c:ee:7a:6c:51:e8:00:fb:17:70:7d:7a:cc:44:42:61:a0:
        b4:a1:dd:32:4b:c3:29:d7:3d:c7:e5:f4:09:6c:b7:e4:74:93:
        7c:d6:aa:70:c5:b5:7b:27:ef:55:b6:4e:3f:42:31:82:4b:48:
        57:e0:e1:54:f6:f1:b5:1f:b0:71:bd:b5:d3:9d:ab:3e:a1:58:
        de:ac:31:0c:51:a3:56:27:e1:8b:4e:d7:67:2d:1b:f3:74:d0:
        d8:da:31:5d:99:91:a9:42:17:70:92:a7:31:95:2e:93:a8:63:
        a7:e5:d1:85:ff:a6:16:ae:86:a0:0f:e4:a5:ad:bc:9f:cb:cc:
        32:54:76:66:82:b0:78:a8:be:44:25:5b:13:06:a9:16:f2:10:
        77:60:bc:2c:8c:e0:0d:b9:68:42:67:e0:ba:c2:be:db:94:4d:
        f1:bf:7a:7e:ee:04:8c:f4:1d:16:7c:9f:34:43:2d:9a:db:e9:
        77:83:29:40:01:3f:df:95:9c:bc:ee:4b:62:16:f4:92:dc:f0:
        57:74:b1:1e:e6:ae:50:04:1b:de:78:9c:0b:87:c5:05:ee:03:
        cb:91:19:6d:f7:e9:69:0d:72:43:51:ad:f1:2b:c9:c8:0a:4f:
        ce:9b:44:8e:e2:b3:de:81:88:45:c6:f9:33:19:f2:bb:23:87:
        bf:d3:16:af:09:e1:84:22:80:83:4c:41:cb:16:ec:94:fc:a6:
        f8:d0:9a:34:3b:45:22:c5:10:92:9b:f4:4d:4c:1a:ed:2a:43:
        a5:96:24:bd:cd:cc:c7:11:06:c6:00:b2:07:c2:14:fe:1c:4e:
        55:2d:f3:48:88:ab:0e:4c:78:da:c6:7f:fd:3c:bc:d2:4e:ec:
        cc:77:98:ba:b5:48:52:05:49:fc:43:3a:26:0f:fc:1d:a3:9d:
        a6:1d:e3:7e:a5:59:38:88:95:13:9e:55:07:55:54:5b:69:76:
        c3:6a:9b:1d:54:bc:f4:8e:e8:89:45:e1:61:b2:f9:27:c2:e9:
        24:46:84:a9:d9:df:06:9c:57:30:21:cd:3a:c5:87:b0:28:e2:
        c4:53:b8:a3:ac:9d:cf:e9:c6:7e:53:b7:3f:09:41:2c:40:8c:
        c5:c0:b4:96:fa:36:66:1c:15:3f:df:e0:85:b7:63:83:d9:1e:
        79:af:c5:4c:94:2b:5e:1a:46:f8:ad:49:32:96:9f:69:43:ce:
        eb:a2:04:21:9b:cd:fe:cc
-----BEGIN CERTIFICATE-----
MIIE5DCCAsygAwIBAgIBBzANBgkqhkiG9w0BAQUFADCBqTELMAkGA1UEBhMCREUx
DzANBgNVBAgTBkJlcmxpbjEPMA0GA1UEBxMGQmVybGluMRQwEgYDVQQKEwtFeGFt
cGxlIENvbTETMBEGA1UECxMKT3BlcmF0aW9uczEmMCQGA1UEAxMdQ2VydGlmaWNh
dGUgU2lnbmluZyBBdXRob3JpdHkxJTAjBgkqhkiG9w0BCQEWFmhvc3RtYXN0ZXJA
ZXhhbXBsZS5jb20wHhcNMTIwMzE1MDk0NjM5WhcNMTMwMzE1MDk0NjM5WjByMQsw
CQYDVQQGEwJERTEPMA0GA1UECBMGQmVybGluMQ8wDQYDVQQHEwZCZXJsaW4xFDAS
BgNVBAoTC0V4YW1wbGUgQ29tMRMwEQYDVQQLEwpPcGVyYXRpb25zMRYwFAYDVQQD
Ew1iLnhudWxsLW5zLmRlMIIBIjANBgkqhkiG9w0BAQEFAAOCAQ8AMIIBCgKCAQEA
od48GQ2Iug8850cl77M3Gdx3pwpFa5FfqpcmWhG/3D4PdjwhxIDaqrX3eS8rcIG+
dJrGHAhgXzrjsAVyJWXA8UjwklsL0h4uxwGIJ9Hxhz8/o+crAvkM5Rh0OLOXtDYB
r7tgdSjdoX0ASaV36d38Ru/2iBhA50FnatlREyJeC7XffeTNnTzIskHKMAQIWoYz
sofi2TSDLHJGfclCo72x0bGFDCz9eTjpTg1f3f01AO/E7eJokvI4YJD0eMWM2tOo
GezwFPBW5u85/uX7x1hh++RJbxrqgHYKg7/9I1L3jlHkoMDwOQuplGkdmr+nDDoM
MgL382zKtX9wSJJRyu0VyQIDAQABo00wSzAJBgNVHRMEAjAAMB0GA1UdDgQWBBQ7
n7d+4eXl17hSIubTbtpxqTRBtTAfBgNVHSMEGDAWgBRQM+a/TbNmqiaXBpvbVyTf
wUlm4zANBgkqhkiG9w0BAQUFAAOCAgEAM3Cn+6ZUBxvic94BZIaUkih9pk+yLQGu
EYZP+QDdDIlGPSaaVfljC737DWs+qVCmJEOXdtdvwxzuemxR6AD7F3B9esxEQmGg
tKHdMkvDKdc9x+X0CWy35HSTfNaqcMW1eyfvVbZOP0IxgktIV+DhVPbxtR+wcb21
052rPqFY3qwxDFGjVifhi07XZy0b83TQ2NoxXZmRqUIXcJKnMZUuk6hjp+XRhf+m
Fq6GoA/kpa28n8vMMlR2ZoKweKi+RCVbEwapFvIQd2C8LIzgDbloQmfgusK+25RN
8b96fu4EjPQdFnyfNEMtmtvpd4MpQAE/35WcvO5LYhb0ktzwV3SxHuauUAQb3nic
C4fFBe4Dy5EZbffpaQ1yQ1Gt8SvJyApPzptEjuKz3oGIRcb5MxnyuyOHv9MWrwnh
hCKAg0xByxbslPym+NCaNDtFIsUQkpv0TUwa7SpDpZYkvc3MxxEGxgCyB8IU/hxO
VS3zSIirDkx42sZ//Ty80k7szHeYurVIUgVJ/EM6Jg/8HaOdph3jfqVZOIiVE55V
B1VUW2l2w2qbHVS89I7oiUXhYbL5J8LpJEaEqdnfBpxXMCHNOsWHsCjixFO4o6yd
z+nGflO3PwlBLECMxcC0lvo2ZhwVP9/ghbdjg9keea/FTJQrXhpG+K1JMpafaUPO
66IEIZvN/sw=
-----END CERTIFICATE-----
