Certificate:
    Data:
        Version: 3 (0x2)
        Serial Number: 2 (0x2)
    Signature Algorithm: sha1WithRSAEncryption
        Issuer: C=DE, ST=Berlin, L=Berlin, O=ZenOps, OU=Operations, CN=Certificate Signing Authority/emailAddress=hostmaster@zenops.de
        Validity
            Not Before: Mar  9 09:53:48 2013 GMT
            Not After : Mar  9 09:53:48 2014 GMT
        Subject: C=DE, ST=Berlin, L=Berlin, O=ZenOps, OU=Operations, CN=bocaloves.me
        Subject Public Key Info:
            Public Key Algorithm: rsaEncryption
                Public-Key: (2048 bit)
                Modulus:
                    00:b8:2b:ba:ed:d8:78:db:88:1b:81:4c:fd:85:52:
                    c7:07:94:70:69:53:e7:4b:ca:84:60:35:2e:52:d3:
                    b0:42:af:95:e8:43:0d:f9:5a:b6:a2:30:7a:2f:c4:
                    15:da:d8:e5:f7:b7:dd:86:b1:c1:84:71:20:dc:3c:
                    e5:d5:ce:82:98:21:e0:52:34:e9:57:6a:db:a4:b9:
                    60:7e:69:46:6e:05:59:b3:53:3b:13:ae:89:6c:76:
                    9c:71:5e:a1:1a:c4:23:ab:1c:a1:30:79:27:96:60:
                    4b:8f:c7:ce:47:1b:41:3a:71:b2:0f:68:a2:79:25:
                    49:42:3b:10:8e:61:06:99:ff:25:72:83:d0:17:ff:
                    58:76:82:fd:c5:d7:71:58:39:0b:d1:a7:12:f1:b9:
                    52:d5:d0:7b:79:b1:d9:f2:b6:e9:09:da:28:b3:24:
                    f6:29:db:0d:4f:e8:8f:5a:16:df:b3:c5:1e:e6:cb:
                    fd:f4:d7:c3:f0:f0:01:0d:e4:bb:37:cb:22:6d:2a:
                    3f:61:86:07:41:91:e9:99:a0:c2:ea:7a:6a:90:b5:
                    89:c5:84:61:4b:da:b4:3e:b8:98:54:30:a5:d8:8e:
                    1c:aa:c2:d9:4f:78:61:58:37:9e:12:1c:94:6c:4a:
                    01:cd:bb:9b:7d:88:5e:3e:36:b8:d2:eb:b8:07:b1:
                    57:e5
                Exponent: 65537 (0x10001)
        X509v3 extensions:
            X509v3 Basic Constraints: 
                CA:FALSE
            X509v3 Subject Key Identifier: 
                19:A5:7D:84:1B:30:D8:4F:A9:96:D9:EE:60:B5:ED:2C:7B:1D:A3:09
            X509v3 Authority Key Identifier: 
                keyid:4F:4D:64:16:D3:0B:30:0C:96:E3:86:E8:D2:0F:68:20:CF:D0:DC:CD

    Signature Algorithm: sha1WithRSAEncryption
         0e:12:fc:12:ac:c9:ac:66:3d:f6:73:e2:16:a1:28:a0:63:8d:
         77:e6:d1:8f:36:a8:a4:df:e9:a8:f3:0f:ba:f0:ba:23:f7:c2:
         81:5a:95:44:d6:c3:36:9b:96:a0:c6:df:4b:df:79:7d:55:64:
         29:90:fd:bd:c1:58:c8:a4:0f:c1:19:74:44:9d:1e:5e:3b:c9:
         56:bd:47:af:fa:04:48:70:ee:d4:86:59:b7:b5:e6:76:e1:c0:
         a4:1a:80:fe:a8:44:6a:15:5c:0a:27:31:2b:89:f7:58:60:f5:
         08:68:30:9c:60:49:a5:da:5f:c5:9f:95:5d:88:b3:54:dc:3f:
         45:80:f6:49:b8:e9:0b:f3:4c:f4:4c:cb:82:bb:fe:94:17:99:
         aa:60:bf:a4:0b:7e:bf:c6:ba:d9:c6:c3:c4:e6:09:12:00:e1:
         0c:87:44:2a:67:ac:d3:c9:10:89:c0:e2:a4:f0:11:23:85:fa:
         cb:f3:1f:f6:53:db:99:ea:6b:c1:f2:7b:c1:9f:c6:b8:2f:8f:
         a9:41:e3:72:6e:ff:64:3a:46:b6:0c:18:e8:7b:88:91:99:34:
         90:38:58:a0:48:8c:01:a0:40:70:61:34:e9:25:c6:ac:b2:49:
         eb:2f:2d:42:90:94:f1:5e:98:55:55:18:21:52:c0:54:c0:81:
         ef:cb:4f:52:b8:ff:b2:7f:7a:b2:f7:92:35:2c:52:6e:30:5c:
         2e:81:f4:96:1b:88:9c:a4:25:c6:be:b5:fd:b8:9b:3d:63:24:
         a1:bf:2d:4e:ac:fe:d5:ad:41:88:49:ae:f0:32:e3:d2:a1:e8:
         e8:1b:a7:41:47:9c:0f:04:70:cd:9d:28:92:39:20:6c:4d:82:
         8f:de:c8:2e:1a:5b:50:9c:7c:36:e3:00:36:3c:33:01:f0:c3:
         cb:17:3d:32:4e:53:bf:0c:a6:7c:e0:67:00:24:1e:7c:b2:3a:
         8f:81:ae:45:04:ca:6b:c7:88:68:69:10:a1:86:49:8e:0e:5e:
         93:0f:6b:86:eb:b0:e2:08:2d:d5:e1:f9:08:55:34:32:7e:8b:
         64:31:93:bb:20:5c:6b:3b:9d:45:57:c2:43:1c:85:1c:f8:a3:
         b2:ab:0c:b9:9d:a8:e8:e1:ee:bf:6d:11:e4:04:e8:74:6d:5a:
         5e:b8:a9:51:1d:4b:99:7a:82:9e:8e:33:d9:47:89:a3:c0:bb:
         b0:af:e4:14:a6:b6:1e:b3:49:6d:ed:27:c1:9c:ac:c1:49:8e:
         14:48:5e:03:02:c6:a7:6a:cd:bc:22:6c:8c:84:6d:36:95:1f:
         2f:cc:dc:9f:91:82:6b:7c:27:f8:6f:94:b9:b3:59:45:fd:ed:
         81:37:eb:94:57:d0:60:07
-----BEGIN CERTIFICATE-----
MIIE1zCCAr+gAwIBAgIBAjANBgkqhkiG9w0BAQUFADCBojELMAkGA1UEBhMCREUx
DzANBgNVBAgTBkJlcmxpbjEPMA0GA1UEBxMGQmVybGluMQ8wDQYDVQQKEwZaZW5P
cHMxEzARBgNVBAsTCk9wZXJhdGlvbnMxJjAkBgNVBAMTHUNlcnRpZmljYXRlIFNp
Z25pbmcgQXV0aG9yaXR5MSMwIQYJKoZIhvcNAQkBFhRob3N0bWFzdGVyQHplbm9w
cy5kZTAeFw0xMzAzMDkwOTUzNDhaFw0xNDAzMDkwOTUzNDhaMGwxCzAJBgNVBAYT
AkRFMQ8wDQYDVQQIEwZCZXJsaW4xDzANBgNVBAcTBkJlcmxpbjEPMA0GA1UEChMG
WmVuT3BzMRMwEQYDVQQLEwpPcGVyYXRpb25zMRUwEwYDVQQDEwxib2NhbG92ZXMu
bWUwggEiMA0GCSqGSIb3DQEBAQUAA4IBDwAwggEKAoIBAQC4K7rt2HjbiBuBTP2F
UscHlHBpU+dLyoRgNS5S07BCr5XoQw35WraiMHovxBXa2OX3t92GscGEcSDcPOXV
zoKYIeBSNOlXatukuWB+aUZuBVmzUzsTrolsdpxxXqEaxCOrHKEweSeWYEuPx85H
G0E6cbIPaKJ5JUlCOxCOYQaZ/yVyg9AX/1h2gv3F13FYOQvRpxLxuVLV0Ht5sdny
tukJ2iizJPYp2w1P6I9aFt+zxR7my/3018Pw8AEN5Ls3yyJtKj9hhgdBkemZoMLq
emqQtYnFhGFL2rQ+uJhUMKXYjhyqwtlPeGFYN54SHJRsSgHNu5t9iF4+NrjS67gH
sVflAgMBAAGjTTBLMAkGA1UdEwQCMAAwHQYDVR0OBBYEFBmlfYQbMNhPqZbZ7mC1
7Sx7HaMJMB8GA1UdIwQYMBaAFE9NZBbTCzAMluOG6NIPaCDP0NzNMA0GCSqGSIb3
DQEBBQUAA4ICAQAOEvwSrMmsZj32c+IWoSigY4135tGPNqik3+mo8w+68Loj98KB
WpVE1sM2m5agxt9L33l9VWQpkP29wVjIpA/BGXREnR5eO8lWvUev+gRIcO7Uhlm3
teZ24cCkGoD+qERqFVwKJzErifdYYPUIaDCcYEml2l/Fn5VdiLNU3D9FgPZJuOkL
80z0TMuCu/6UF5mqYL+kC36/xrrZxsPE5gkSAOEMh0QqZ6zTyRCJwOKk8BEjhfrL
8x/2U9uZ6mvB8nvBn8a4L4+pQeNybv9kOka2DBjoe4iRmTSQOFigSIwBoEBwYTTp
JcassknrLy1CkJTxXphVVRghUsBUwIHvy09SuP+yf3qy95I1LFJuMFwugfSWG4ic
pCXGvrX9uJs9YyShvy1OrP7VrUGISa7wMuPSoejoG6dBR5wPBHDNnSiSOSBsTYKP
3sguGltQnHw24wA2PDMB8MPLFz0yTlO/DKZ84GcAJB58sjqPga5FBMprx4hoaRCh
hkmODl6TD2uG67DiCC3V4fkIVTQyfotkMZO7IFxrO51FV8JDHIUc+KOyqwy5najo
4e6/bRHkBOh0bVpeuKlRHUuZeoKejjPZR4mjwLuwr+QUprYes0lt7SfBnKzBSY4U
SF4DAsanas28ImyMhG02lR8vzNyfkYJrfCf4b5S5s1lF/e2BN+uUV9BgBw==
-----END CERTIFICATE-----
