Certificate:
    Data:
        Version: 3 (0x2)
        Serial Number: 14 (0xe)
        Signature Algorithm: sha1WithRSAEncryption
        Issuer: C=DE, ST=Berlin, L=Berlin, O=Example Com, OU=Operations, CN=Certificate Signing Authority/emailAddress=hostmaster@example.com
        Validity
            Not Before: Apr 29 13:00:10 2012 GMT
            Not After : Apr 29 13:00:10 2013 GMT
        Subject: C=DE, ST=Berlin, L=Berlin, O=Example Com, OU=Operations, CN=box.home.xnull.de
        Subject Public Key Info:
            Public Key Algorithm: rsaEncryption
                Public-Key: (2048 bit)
                Modulus:
                    00:c8:61:96:2d:98:7d:f6:a6:85:f3:45:32:c3:98:
                    9b:aa:12:d6:0f:8e:19:24:d7:53:fa:90:8b:6d:a4:
                    2f:52:1e:20:31:3d:4c:1e:af:3f:cd:09:e9:21:d5:
                    19:e8:eb:3a:d1:a8:ad:ab:f7:a4:77:e3:a9:62:bf:
                    01:73:43:7e:2b:b1:c0:af:18:48:c3:f0:aa:f4:ef:
                    df:65:19:9c:cf:ee:61:ea:db:1d:b8:99:52:59:f1:
                    09:85:e9:9f:40:6a:6c:6b:a5:d1:88:cb:3e:03:11:
                    b0:3b:34:60:2f:8e:b3:c3:ee:e2:b2:8f:1d:0d:84:
                    8d:7b:7d:2a:a3:b4:ab:fd:84:62:a9:1f:63:1b:34:
                    26:f6:d3:4a:72:a4:c7:7a:61:e9:ec:8d:84:20:ee:
                    ec:ff:c0:cc:a8:ea:5f:13:3f:89:95:36:32:14:cd:
                    28:a1:5f:26:49:b6:79:db:6b:13:f5:2a:de:03:a5:
                    78:96:6a:3e:e2:7d:a5:88:65:3c:fc:a5:a1:7e:76:
                    d5:bb:52:b4:f0:42:2a:80:17:f2:69:2e:24:43:92:
                    e1:40:08:d9:da:6d:81:29:58:ad:e9:ff:10:7c:4d:
                    7c:9f:b4:60:aa:fc:15:56:b7:22:5b:dc:ba:71:5b:
                    84:e1:b6:c5:a3:7b:dc:65:04:30:04:bf:3a:74:f1:
                    9d:d1
                Exponent: 65537 (0x10001)
        X509v3 extensions:
            X509v3 Basic Constraints: 
                CA:FALSE
            X509v3 Subject Key Identifier: 
                51:FF:AA:07:72:C7:5D:CB:E5:FC:A8:89:CA:20:41:C3:AB:71:DA:15
            X509v3 Authority Key Identifier: 
                keyid:50:33:E6:BF:4D:B3:66:AA:26:97:06:9B:DB:57:24:DF:C1:49:66:E3

    Signature Algorithm: sha1WithRSAEncryption
        1a:77:75:db:f1:1b:2c:b3:fa:58:5b:08:48:ea:74:56:3a:e8:
        e5:0f:8b:b2:b3:1a:2e:75:e5:25:65:63:07:7e:07:4f:6c:39:
        23:1f:07:ff:44:12:a8:f2:f0:80:93:60:bb:f8:b3:cc:f3:f0:
        7f:48:fd:d7:f2:74:a0:a5:5e:04:7a:3b:36:b5:5a:d0:d1:31:
        7c:84:dc:53:ac:5a:64:50:ef:41:8b:53:b6:e1:57:77:b2:8e:
        50:62:9e:44:d1:37:b9:58:70:9b:1a:f8:7c:5e:8f:4e:9e:72:
        17:e8:46:a6:25:61:6e:a1:8e:9d:6e:17:15:d7:89:9e:a1:1c:
        90:fd:a6:78:fd:ea:6d:fd:d2:81:83:6c:5c:53:2f:1d:96:78:
        92:9d:28:d1:97:88:e5:11:9f:d0:cd:fe:8f:39:1a:01:c2:7f:
        22:3b:28:1e:49:00:c4:fc:a8:a3:d7:51:f9:8e:4e:86:d1:a8:
        b5:38:ef:17:96:bf:0e:c1:c3:80:d0:b6:d7:40:eb:ee:db:2e:
        70:69:58:b6:a0:d8:6b:b2:48:1b:f6:d0:3c:82:61:41:b7:4b:
        9e:cc:87:39:09:e6:d4:58:33:be:d5:d0:9d:a2:cd:1f:0d:4e:
        28:30:54:c2:a4:84:6e:f9:2a:7c:68:6e:27:9e:e2:ee:16:69:
        f4:5a:c6:8b:e1:d2:04:61:90:7d:e6:b1:28:55:76:3a:6b:b2:
        ce:c2:04:1a:41:f7:87:2b:0c:6e:fd:7b:8b:07:6e:bb:84:dd:
        5a:ba:5a:44:74:48:31:28:8d:60:16:78:e0:13:fe:63:ad:be:
        04:29:74:69:e5:93:95:94:90:b1:91:85:e5:35:3f:94:f2:4f:
        3d:f0:28:6d:17:a0:2f:b6:ff:7f:89:f4:c1:e5:30:7a:71:04:
        6b:11:d7:f0:3d:f7:0c:84:db:38:8a:34:be:ec:62:2b:67:7a:
        af:c3:35:d7:70:70:31:97:2d:c9:bf:8f:a9:31:c2:23:7a:9d:
        74:0a:5c:b1:6d:be:57:fb:2e:c9:27:25:f1:3c:be:ec:40:2b:
        8a:c6:f1:11:80:22:e5:1d:0c:a7:a9:f4:3a:9e:ce:19:3d:92:
        95:e2:0e:bc:bc:ab:3c:22:c0:2c:d1:b9:83:35:0d:a9:80:ed:
        36:e8:5a:8e:79:c2:5b:0b:d7:5a:47:89:c0:a7:1d:7c:dd:44:
        bb:ad:e2:78:f2:f0:a1:28:10:05:cb:d0:e3:25:2b:6e:41:2b:
        64:4a:ee:fb:85:44:5e:cc:95:a7:4e:c8:b4:40:c6:30:e4:a0:
        0b:e4:9c:c7:e4:a5:43:6f:72:97:6b:18:83:3d:e5:a6:df:56:
        07:ed:92:d9:c2:5f:1a:54
-----BEGIN CERTIFICATE-----
MIIE6DCCAtCgAwIBAgIBDjANBgkqhkiG9w0BAQUFADCBqTELMAkGA1UEBhMCREUx
DzANBgNVBAgTBkJlcmxpbjEPMA0GA1UEBxMGQmVybGluMRQwEgYDVQQKEwtFeGFt
cGxlIENvbTETMBEGA1UECxMKT3BlcmF0aW9uczEmMCQGA1UEAxMdQ2VydGlmaWNh
dGUgU2lnbmluZyBBdXRob3JpdHkxJTAjBgkqhkiG9w0BCQEWFmhvc3RtYXN0ZXJA
ZXhhbXBsZS5jb20wHhcNMTIwNDI5MTMwMDEwWhcNMTMwNDI5MTMwMDEwWjB2MQsw
CQYDVQQGEwJERTEPMA0GA1UECBMGQmVybGluMQ8wDQYDVQQHEwZCZXJsaW4xFDAS
BgNVBAoTC0V4YW1wbGUgQ29tMRMwEQYDVQQLEwpPcGVyYXRpb25zMRowGAYDVQQD
ExFib3guaG9tZS54bnVsbC5kZTCCASIwDQYJKoZIhvcNAQEBBQADggEPADCCAQoC
ggEBAMhhli2YffamhfNFMsOYm6oS1g+OGSTXU/qQi22kL1IeIDE9TB6vP80J6SHV
GejrOtGorav3pHfjqWK/AXNDfiuxwK8YSMPwqvTv32UZnM/uYerbHbiZUlnxCYXp
n0BqbGul0YjLPgMRsDs0YC+Os8Pu4rKPHQ2EjXt9KqO0q/2EYqkfYxs0JvbTSnKk
x3ph6eyNhCDu7P/AzKjqXxM/iZU2MhTNKKFfJkm2edtrE/Uq3gOleJZqPuJ9pYhl
PPyloX521btStPBCKoAX8mkuJEOS4UAI2dptgSlYren/EHxNfJ+0YKr8FVa3Ilvc
unFbhOG2xaN73GUEMAS/OnTxndECAwEAAaNNMEswCQYDVR0TBAIwADAdBgNVHQ4E
FgQUUf+qB3LHXcvl/KiJyiBBw6tx2hUwHwYDVR0jBBgwFoAUUDPmv02zZqomlwab
21ck38FJZuMwDQYJKoZIhvcNAQEFBQADggIBABp3ddvxGyyz+lhbCEjqdFY66OUP
i7KzGi515SVlYwd+B09sOSMfB/9EEqjy8ICTYLv4s8zz8H9I/dfydKClXgR6Oza1
WtDRMXyE3FOsWmRQ70GLU7bhV3eyjlBinkTRN7lYcJsa+Hxej06echfoRqYlYW6h
jp1uFxXXiZ6hHJD9pnj96m390oGDbFxTLx2WeJKdKNGXiOURn9DN/o85GgHCfyI7
KB5JAMT8qKPXUfmOTobRqLU47xeWvw7Bw4DQttdA6+7bLnBpWLag2GuySBv20DyC
YUG3S57MhzkJ5tRYM77V0J2izR8NTigwVMKkhG75Knxobiee4u4WafRaxovh0gRh
kH3msShVdjprss7CBBpB94crDG79e4sHbruE3Vq6WkR0SDEojWAWeOAT/mOtvgQp
dGnlk5WUkLGRheU1P5TyTz3wKG0XoC+2/3+J9MHlMHpxBGsR1/A99wyE2ziKNL7s
Yitneq/DNddwcDGXLcm/j6kxwiN6nXQKXLFtvlf7LsknJfE8vuxAK4rG8RGAIuUd
DKep9Dqezhk9kpXiDry8qzwiwCzRuYM1DamA7TboWo55wlsL11pHicCnHXzdRLut
4njy8KEoEAXL0OMlK25BK2RK7vuFRF7MladOyLRAxjDkoAvknMfkpUNvcpdrGIM9
5abfVgftktnCXxpU
-----END CERTIFICATE-----
