Certificate:
    Data:
        Version: 3 (0x2)
        Serial Number: 15 (0xf)
    Signature Algorithm: sha1WithRSAEncryption
        Issuer: C=DE, ST=Berlin, L=Berlin, O=Example Com, OU=Operations, CN=Certificate Signing Authority/emailAddress=hostmaster@example.com
        Validity
            Not Before: Apr 29 15:13:38 2012 GMT
            Not After : Apr 29 15:13:38 2013 GMT
        Subject: C=DE, ST=Berlin, L=Berlin, O=Example Com, OU=Operations, CN=chaos.home.xnull.de
        Subject Public Key Info:
            Public Key Algorithm: rsaEncryption
                Public-Key: (2048 bit)
                Modulus:
                    00:d6:f2:ef:82:6d:a2:26:41:b7:bb:5e:6a:06:a6:
                    8f:38:ae:d4:73:f8:31:51:6e:d3:f2:2c:0d:d6:42:
                    5f:83:8a:65:8d:47:68:58:a0:34:b4:a5:95:0b:1d:
                    a1:fa:a6:c8:65:6f:a5:a0:66:e9:e4:1d:ea:65:08:
                    ce:8f:21:9d:56:f4:f4:de:8f:78:ef:81:3b:f5:68:
                    2f:6e:7a:90:e3:52:a4:38:e7:3b:a2:66:54:e4:65:
                    f1:f1:2d:b1:b8:42:02:8f:b6:59:57:9d:ee:69:b9:
                    ea:24:8f:6d:d3:52:39:2f:f7:0d:89:36:e1:0a:d7:
                    0f:3c:60:bb:86:0f:64:91:de:2f:a3:4b:c3:7b:94:
                    75:a4:84:6c:bf:92:47:ed:3c:a6:dc:c7:9f:c9:5b:
                    f7:0b:15:95:52:d2:76:21:3f:78:cb:91:f5:f9:44:
                    9b:96:85:77:be:5a:26:fa:a0:e3:61:ba:fb:74:1f:
                    10:9c:bf:6b:45:28:3e:8c:2e:3c:70:c8:c3:c5:d7:
                    1f:2c:c6:71:04:84:a1:b4:e9:d5:5f:d4:bc:86:50:
                    76:74:93:db:1d:2f:e3:09:38:37:85:19:f6:5c:e2:
                    92:88:70:36:b3:4c:54:91:b9:76:4c:c5:9b:63:d9:
                    2a:09:82:a7:79:bd:50:fe:b4:55:40:b5:18:03:97:
                    af:67
                Exponent: 65537 (0x10001)
        X509v3 extensions:
            X509v3 Basic Constraints: 
                CA:FALSE
            X509v3 Subject Key Identifier: 
                1C:0B:8B:D4:DB:BC:8D:C0:5E:64:C2:4B:0B:5D:FD:CA:E6:9B:DD:57
            X509v3 Authority Key Identifier: 
                keyid:50:33:E6:BF:4D:B3:66:AA:26:97:06:9B:DB:57:24:DF:C1:49:66:E3

    Signature Algorithm: sha1WithRSAEncryption
         4f:c7:12:d6:12:a5:cb:7b:37:b0:9f:93:4a:39:f2:1d:66:ba:
         52:7d:54:6a:59:46:77:49:e8:7b:7d:09:a2:be:1c:fa:68:9f:
         31:5b:27:a7:cc:73:a8:39:59:4c:45:14:6a:7a:7e:b1:ee:3f:
         ae:85:e1:0d:57:28:ac:2e:7b:a6:e1:a0:f4:3f:fc:ed:df:d3:
         27:d7:51:07:2e:d6:b9:71:06:ac:3f:b0:7f:8e:ed:5b:8a:c9:
         d5:49:28:f2:03:b3:20:21:d0:db:80:04:56:e7:f3:e4:87:7b:
         44:a7:db:ad:c6:10:e9:75:24:ba:e9:d4:6e:11:d1:ba:c2:fa:
         a0:ea:d1:cd:a3:a7:56:85:22:a2:9a:21:a2:07:41:bb:b2:16:
         b5:b6:54:1f:4b:65:57:3e:92:4b:a8:27:c3:67:e5:04:9f:35:
         00:84:c9:f3:1c:e0:8c:28:63:7b:7d:2f:82:16:6b:a2:9b:47:
         eb:93:15:1a:8d:68:ab:39:23:92:df:af:e0:a0:4a:b2:e0:f3:
         21:4a:fc:e2:9a:74:eb:79:8c:35:e1:c8:5c:f7:b4:d8:dd:6c:
         68:20:6b:10:92:79:ae:37:2f:6c:69:ad:9a:e3:22:bc:31:9f:
         2a:42:3a:5a:af:b3:d2:43:2b:e9:27:53:26:47:c4:f4:cc:ff:
         13:c2:73:8b:28:80:aa:62:3b:db:b7:99:92:9e:d0:3a:3e:01:
         a0:b2:d7:74:71:25:13:4e:c0:b5:85:6d:ae:69:46:39:53:15:
         13:d4:5e:17:cd:5e:47:fe:dd:cb:5b:f0:bf:74:90:cf:28:96:
         86:51:f9:fc:c4:9f:75:38:93:8f:aa:0e:35:d4:25:d4:da:ab:
         4e:1f:3d:ee:58:be:fc:7d:81:c4:24:e3:da:0c:6c:2a:36:5b:
         11:46:d8:aa:f8:0d:4c:e1:02:8c:cf:d2:8d:21:5c:d6:95:a2:
         c2:37:27:86:7f:4a:47:f0:af:73:e4:e6:b6:10:d6:8e:a6:1d:
         96:06:a9:64:ab:a6:21:d4:88:0f:d7:b9:cc:7d:87:df:96:48:
         f3:79:de:82:8b:a1:21:ad:08:c7:5f:68:56:98:97:9f:42:ef:
         23:c6:71:7c:1f:1e:d9:ca:ed:16:fd:4f:13:ac:56:60:e6:3b:
         b8:5c:78:6f:f8:84:ea:58:46:e0:78:87:74:5c:22:87:aa:1f:
         74:94:27:f8:81:66:d7:09:84:01:85:bb:59:9e:dd:d2:3e:2a:
         2f:8a:48:88:cc:be:16:89:27:b6:b4:dd:f0:d2:58:d3:17:8d:
         9d:97:35:70:2e:08:3c:ba:31:f9:4a:94:c6:d0:92:ae:13:51:
         6b:bb:34:7d:5f:34:d8:23
-----BEGIN CERTIFICATE-----
MIIE6jCCAtKgAwIBAgIBDzANBgkqhkiG9w0BAQUFADCBqTELMAkGA1UEBhMCREUx
DzANBgNVBAgTBkJlcmxpbjEPMA0GA1UEBxMGQmVybGluMRQwEgYDVQQKEwtFeGFt
cGxlIENvbTETMBEGA1UECxMKT3BlcmF0aW9uczEmMCQGA1UEAxMdQ2VydGlmaWNh
dGUgU2lnbmluZyBBdXRob3JpdHkxJTAjBgkqhkiG9w0BCQEWFmhvc3RtYXN0ZXJA
ZXhhbXBsZS5jb20wHhcNMTIwNDI5MTUxMzM4WhcNMTMwNDI5MTUxMzM4WjB4MQsw
CQYDVQQGEwJERTEPMA0GA1UECBMGQmVybGluMQ8wDQYDVQQHEwZCZXJsaW4xFDAS
BgNVBAoTC0V4YW1wbGUgQ29tMRMwEQYDVQQLEwpPcGVyYXRpb25zMRwwGgYDVQQD
ExNjaGFvcy5ob21lLnhudWxsLmRlMIIBIjANBgkqhkiG9w0BAQEFAAOCAQ8AMIIB
CgKCAQEA1vLvgm2iJkG3u15qBqaPOK7Uc/gxUW7T8iwN1kJfg4pljUdoWKA0tKWV
Cx2h+qbIZW+loGbp5B3qZQjOjyGdVvT03o9474E79WgvbnqQ41KkOOc7omZU5GXx
8S2xuEICj7ZZV53uabnqJI9t01I5L/cNiTbhCtcPPGC7hg9kkd4vo0vDe5R1pIRs
v5JH7Tym3MefyVv3CxWVUtJ2IT94y5H1+USbloV3vlom+qDjYbr7dB8QnL9rRSg+
jC48cMjDxdcfLMZxBIShtOnVX9S8hlB2dJPbHS/jCTg3hRn2XOKSiHA2s0xUkbl2
TMWbY9kqCYKneb1Q/rRVQLUYA5evZwIDAQABo00wSzAJBgNVHRMEAjAAMB0GA1Ud
DgQWBBQcC4vU27yNwF5kwksLXf3K5pvdVzAfBgNVHSMEGDAWgBRQM+a/TbNmqiaX
BpvbVyTfwUlm4zANBgkqhkiG9w0BAQUFAAOCAgEAT8cS1hKly3s3sJ+TSjnyHWa6
Un1UallGd0noe30Jor4c+mifMVsnp8xzqDlZTEUUanp+se4/roXhDVcorC57puGg
9D/87d/TJ9dRBy7WuXEGrD+wf47tW4rJ1Uko8gOzICHQ24AEVufz5Id7RKfbrcYQ
6XUkuunUbhHRusL6oOrRzaOnVoUiopohogdBu7IWtbZUH0tlVz6SS6gnw2flBJ81
AITJ8xzgjChje30vghZroptH65MVGo1oqzkjkt+v4KBKsuDzIUr84pp063mMNeHI
XPe02N1saCBrEJJ5rjcvbGmtmuMivDGfKkI6Wq+z0kMr6SdTJkfE9Mz/E8JziyiA
qmI727eZkp7QOj4BoLLXdHElE07AtYVtrmlGOVMVE9ReF81eR/7dy1vwv3SQzyiW
hlH5/MSfdTiTj6oONdQl1NqrTh897li+/H2BxCTj2gxsKjZbEUbYqvgNTOECjM/S
jSFc1pWiwjcnhn9KR/Cvc+TmthDWjqYdlgapZKumIdSID9e5zH2H35ZI83negouh
Ia0Ix19oVpiXn0LvI8ZxfB8e2crtFv1PE6xWYOY7uFx4b/iE6lhG4HiHdFwih6of
dJQn+IFm1wmEAYW7WZ7d0j4qL4pIiMy+FokntrTd8NJY0xeNnZc1cC4IPLox+UqU
xtCSrhNRa7s0fV802CM=
-----END CERTIFICATE-----
