Certificate:
    Data:
        Version: 3 (0x2)
        Serial Number: 4 (0x4)
    Signature Algorithm: sha1WithRSAEncryption
        Issuer: C=DE, ST=Berlin, L=Berlin, O=ZenOps, OU=Operations, CN=Certificate Signing Authority/emailAddress=hostmaster@zenops.de
        Validity
            Not Before: Mar  9 09:53:50 2013 GMT
            Not After : Mar  9 09:53:50 2014 GMT
        Subject: C=DE, ST=Berlin, L=Berlin, O=ZenOps, OU=Operations, CN=chef.zenops.net
        Subject Public Key Info:
            Public Key Algorithm: rsaEncryption
                Public-Key: (2048 bit)
                Modulus:
                    00:e2:b8:c8:1a:4f:8b:9e:e1:66:a1:f9:7b:63:42:
                    57:2f:7e:01:48:9a:d6:11:d3:2e:b9:f1:07:6b:4d:
                    fc:28:37:58:6f:a8:db:c9:fe:cf:77:f9:11:a6:7c:
                    41:be:1c:ef:da:9f:95:4e:0e:6d:a1:60:69:c4:df:
                    39:6b:a2:f0:47:94:ea:f0:0e:6b:91:5e:43:bc:09:
                    a7:bb:d5:44:78:cf:3c:7c:72:97:19:e9:29:31:28:
                    ee:ee:aa:88:24:60:16:e5:9a:cd:cb:39:33:8f:0e:
                    3b:c4:fb:2c:85:2f:5f:f9:0e:20:66:91:16:76:c8:
                    65:b0:f7:56:01:8c:11:63:88:ef:8f:76:ba:78:38:
                    44:05:0c:36:eb:e1:24:89:34:a0:8e:d3:63:c1:32:
                    47:4a:0e:ba:4e:ea:cd:9c:0c:e9:7e:ec:66:99:b9:
                    0c:61:a8:c4:dc:d2:dd:ba:c5:d5:bd:99:3a:4f:9c:
                    3d:61:f7:6c:07:63:01:63:cc:81:2f:01:6f:cd:d8:
                    83:9b:fd:a9:0c:2f:bc:0e:04:5e:31:0b:b3:da:d3:
                    1b:46:3e:40:22:c2:b2:84:27:7d:20:91:5d:50:f2:
                    cd:cd:29:ab:e0:62:82:a4:f5:2e:cb:57:7e:ef:07:
                    c7:a8:ec:74:52:eb:5b:d9:e8:1b:19:77:0c:c8:e7:
                    cc:ff
                Exponent: 65537 (0x10001)
        X509v3 extensions:
            X509v3 Basic Constraints: 
                CA:FALSE
            X509v3 Subject Key Identifier: 
                52:56:8D:D2:63:5D:06:AF:FC:D3:B4:B2:E2:9F:51:36:61:44:D4:4D
            X509v3 Authority Key Identifier: 
                keyid:4F:4D:64:16:D3:0B:30:0C:96:E3:86:E8:D2:0F:68:20:CF:D0:DC:CD

    Signature Algorithm: sha1WithRSAEncryption
         27:10:de:cd:49:ba:6e:ce:fc:e2:11:07:3a:7b:fe:73:d3:d0:
         65:4e:59:92:30:ea:77:ed:f1:25:3a:9a:b2:ef:09:9e:de:70:
         3d:a8:89:ac:8a:95:bb:3a:3b:cf:22:e7:32:63:00:a6:27:b2:
         c8:e5:e8:d5:d4:4f:87:51:c8:eb:62:f8:7e:84:95:a3:d2:09:
         28:e4:c4:e2:9b:f8:9b:6b:96:4a:17:68:bc:da:b4:30:2d:39:
         1f:5f:6d:48:41:38:65:00:01:ee:16:1f:e7:5d:5b:81:c8:8f:
         c6:11:ac:21:13:37:09:c5:c9:c3:27:a0:ab:fd:9c:ce:2e:09:
         ed:bc:3a:b5:6f:4b:d6:77:e7:0c:d6:61:eb:c0:2a:20:9b:aa:
         f0:11:27:af:1d:34:10:dd:94:0e:7a:bd:b6:21:70:d6:a8:3e:
         6a:d2:2d:03:3b:1e:3b:76:a8:a4:db:23:25:17:00:e0:da:f2:
         92:67:9f:c0:5c:7e:1e:fb:95:18:d4:63:62:85:f5:cc:c3:ab:
         e2:0c:93:6f:d8:57:6b:fd:02:f5:c9:b9:0b:93:48:f5:d0:d6:
         78:ad:ec:58:91:df:11:7a:9c:68:4d:2b:0a:39:43:c2:b6:df:
         a1:7c:6c:70:6b:f5:51:58:fa:e8:5e:ab:1c:31:96:3f:80:e1:
         bc:c6:53:d1:74:78:cf:f2:83:3d:56:02:92:db:01:06:6a:07:
         c7:f3:d7:99:e1:59:2d:a1:8b:8e:ca:32:de:a6:23:3d:b3:a8:
         8e:c8:53:db:75:32:be:4d:8c:c6:20:4d:03:b5:8f:a2:a8:a3:
         47:b4:28:6a:28:b3:89:d9:11:58:75:86:f4:ce:6d:b8:4c:76:
         17:53:8c:8a:04:66:c5:2f:73:84:66:fa:b6:0c:3e:0f:ce:cb:
         7c:67:55:26:9f:43:98:4d:5f:1c:90:35:a3:80:63:55:11:71:
         48:64:79:90:e0:44:63:de:c8:8f:07:99:19:79:7d:a1:76:73:
         3b:d6:30:c8:a0:12:e2:b3:91:c9:51:43:4b:ca:30:e5:ce:0c:
         fd:76:89:45:80:b5:6a:de:76:51:ed:0f:43:45:d5:16:74:10:
         34:99:03:ea:6f:ab:50:dd:31:7a:f5:ed:4e:6c:6b:6f:b8:32:
         41:47:93:e7:c1:8d:1c:7c:74:33:6e:f0:e1:b1:1c:ae:67:e9:
         ac:ea:32:4c:10:b9:11:1e:ae:72:0b:55:24:17:8b:da:b8:df:
         af:cc:df:3d:21:61:37:0f:17:19:26:59:2e:18:c4:70:37:21:
         d6:4f:b7:05:4c:a7:be:ab:12:1e:9a:f9:81:87:95:a1:1f:c7:
         fc:ba:a6:fe:26:79:81:1c
-----BEGIN CERTIFICATE-----
MIIE2jCCAsKgAwIBAgIBBDANBgkqhkiG9w0BAQUFADCBojELMAkGA1UEBhMCREUx
DzANBgNVBAgTBkJlcmxpbjEPMA0GA1UEBxMGQmVybGluMQ8wDQYDVQQKEwZaZW5P
cHMxEzARBgNVBAsTCk9wZXJhdGlvbnMxJjAkBgNVBAMTHUNlcnRpZmljYXRlIFNp
Z25pbmcgQXV0aG9yaXR5MSMwIQYJKoZIhvcNAQkBFhRob3N0bWFzdGVyQHplbm9w
cy5kZTAeFw0xMzAzMDkwOTUzNTBaFw0xNDAzMDkwOTUzNTBaMG8xCzAJBgNVBAYT
AkRFMQ8wDQYDVQQIEwZCZXJsaW4xDzANBgNVBAcTBkJlcmxpbjEPMA0GA1UEChMG
WmVuT3BzMRMwEQYDVQQLEwpPcGVyYXRpb25zMRgwFgYDVQQDEw9jaGVmLnplbm9w
cy5uZXQwggEiMA0GCSqGSIb3DQEBAQUAA4IBDwAwggEKAoIBAQDiuMgaT4ue4Wah
+XtjQlcvfgFImtYR0y658QdrTfwoN1hvqNvJ/s93+RGmfEG+HO/an5VODm2hYGnE
3zlrovBHlOrwDmuRXkO8Cae71UR4zzx8cpcZ6SkxKO7uqogkYBblms3LOTOPDjvE
+yyFL1/5DiBmkRZ2yGWw91YBjBFjiO+Pdrp4OEQFDDbr4SSJNKCO02PBMkdKDrpO
6s2cDOl+7GaZuQxhqMTc0t26xdW9mTpPnD1h92wHYwFjzIEvAW/N2IOb/akML7wO
BF4xC7Pa0xtGPkAiwrKEJ30gkV1Q8s3NKavgYoKk9S7LV37vB8eo7HRS61vZ6BsZ
dwzI58z/AgMBAAGjTTBLMAkGA1UdEwQCMAAwHQYDVR0OBBYEFFJWjdJjXQav/NO0
suKfUTZhRNRNMB8GA1UdIwQYMBaAFE9NZBbTCzAMluOG6NIPaCDP0NzNMA0GCSqG
SIb3DQEBBQUAA4ICAQAnEN7NSbpuzvziEQc6e/5z09BlTlmSMOp37fElOpqy7wme
3nA9qImsipW7OjvPIucyYwCmJ7LI5ejV1E+HUcjrYvh+hJWj0gko5MTim/iba5ZK
F2i82rQwLTkfX21IQThlAAHuFh/nXVuByI/GEawhEzcJxcnDJ6Cr/ZzOLgntvDq1
b0vWd+cM1mHrwCogm6rwESevHTQQ3ZQOer22IXDWqD5q0i0DOx47dqik2yMlFwDg
2vKSZ5/AXH4e+5UY1GNihfXMw6viDJNv2Fdr/QL1ybkLk0j10NZ4rexYkd8Repxo
TSsKOUPCtt+hfGxwa/VRWProXqscMZY/gOG8xlPRdHjP8oM9VgKS2wEGagfH89eZ
4VktoYuOyjLepiM9s6iOyFPbdTK+TYzGIE0DtY+iqKNHtChqKLOJ2RFYdYb0zm24
THYXU4yKBGbFL3OEZvq2DD4Pzst8Z1Umn0OYTV8ckDWjgGNVEXFIZHmQ4ERj3siP
B5kZeX2hdnM71jDIoBLis5HJUUNLyjDlzgz9dolFgLVq3nZR7Q9DRdUWdBA0mQPq
b6tQ3TF69e1ObGtvuDJBR5PnwY0cfHQzbvDhsRyuZ+ms6jJMELkRHq5yC1UkF4va
uN+vzN89IWE3DxcZJlkuGMRwNyHWT7cFTKe+qxIemvmBh5WhH8f8uqb+JnmBHA==
-----END CERTIFICATE-----
