Certificate:
    Data:
        Version: 3 (0x2)
        Serial Number: 5 (0x5)
    Signature Algorithm: sha1WithRSAEncryption
        Issuer: C=DE, ST=Berlin, L=Berlin, O=ZenOps, OU=Operations, CN=Certificate Signing Authority/emailAddress=hostmaster@zenops.de
        Validity
            Not Before: Mar  9 09:53:52 2013 GMT
            Not After : Mar  9 09:53:52 2014 GMT
        Subject: C=DE, ST=Berlin, L=Berlin, O=ZenOps, OU=Operations, CN=dev.zentoo.org
        Subject Public Key Info:
            Public Key Algorithm: rsaEncryption
                Public-Key: (2048 bit)
                Modulus:
                    00:ec:b9:ac:bb:d0:d7:60:51:b0:b1:f4:cf:70:fe:
                    61:ff:69:56:57:f9:f2:27:b9:84:51:04:55:6f:e5:
                    b8:4a:fa:b4:78:96:24:7e:19:1b:ce:34:03:cf:0a:
                    4f:96:a9:5d:e6:b8:14:4f:ad:94:6b:b5:a7:8d:d7:
                    5e:f7:0f:25:2e:cb:66:6d:c5:f1:dc:3c:77:96:b9:
                    3a:f0:64:42:7a:a8:94:65:6e:63:ae:f7:4f:21:37:
                    50:e8:e9:fd:af:fe:d5:9b:0b:d6:b0:d2:ec:ef:32:
                    71:29:1f:b7:b5:95:13:d3:86:ca:51:01:09:57:f6:
                    15:37:00:de:91:dd:ad:9e:f6:4a:21:1c:26:ad:6c:
                    5f:8e:bd:4c:fc:92:c9:e2:62:60:28:d4:03:fb:d8:
                    9e:d7:8e:31:07:7e:fd:e6:05:89:03:8f:ac:f2:9c:
                    e3:5d:7b:76:f1:71:5b:a4:5c:ba:5c:4f:c1:06:5d:
                    5f:5e:47:6f:45:7a:78:ac:8d:9f:19:cf:62:3e:b1:
                    f3:58:94:a0:fd:fb:e6:49:53:0c:f4:38:21:0b:55:
                    4b:0e:1f:b6:4b:e7:d2:96:b6:69:b5:e7:9d:99:7d:
                    c9:8b:ae:44:19:c0:89:62:40:a3:86:5e:32:c8:89:
                    ec:98:b4:9f:3d:8d:7e:4e:64:3c:5c:b5:af:6e:a4:
                    59:b9
                Exponent: 65537 (0x10001)
        X509v3 extensions:
            X509v3 Basic Constraints: 
                CA:FALSE
            X509v3 Subject Key Identifier: 
                84:8B:19:0F:31:F1:80:D0:9E:97:9C:92:C4:B8:1B:93:34:AA:B1:3F
            X509v3 Authority Key Identifier: 
                keyid:4F:4D:64:16:D3:0B:30:0C:96:E3:86:E8:D2:0F:68:20:CF:D0:DC:CD

    Signature Algorithm: sha1WithRSAEncryption
         6c:32:b4:53:f9:86:5e:24:0a:80:69:83:8d:63:e2:da:d3:e7:
         6c:9f:4d:c4:8e:12:0f:34:57:49:5b:d5:ae:03:0b:bb:1d:16:
         37:47:c4:16:29:ca:27:61:bb:2b:c7:2b:9f:13:ea:3a:64:65:
         f7:0d:ab:16:7b:cb:fe:1d:10:66:a2:f4:df:f9:0d:9c:b6:e2:
         5b:31:fa:34:84:f1:2d:bb:41:dd:81:54:13:2d:f4:81:04:71:
         0a:6b:af:94:cd:67:b5:ca:24:1a:ca:32:ef:1a:5f:fe:d1:12:
         51:27:14:25:ca:79:ac:92:a7:b9:ef:d8:cb:17:15:26:f0:99:
         de:d9:91:9e:1c:54:56:e5:50:e0:2b:70:75:31:66:a0:a8:4f:
         fc:47:89:d3:26:ff:2c:f3:b2:0c:24:ac:51:56:ae:5d:c0:83:
         3f:c4:52:a6:5f:eb:30:50:1e:93:c1:7f:ef:f4:ff:e0:d2:5d:
         bb:68:e9:ce:4b:a2:da:35:06:7e:0b:e8:25:b4:6e:f4:28:46:
         09:fd:c4:bb:dd:60:b9:a8:4e:3b:39:00:8a:ff:52:3e:5f:65:
         c9:da:2c:eb:d9:cd:40:58:9a:42:c7:6c:41:c7:c4:8c:11:b0:
         51:91:91:b5:67:33:ff:be:6e:16:9f:9c:6d:5c:77:d3:ef:11:
         5e:91:6b:ba:49:7b:be:4d:10:af:3c:41:cc:5b:72:82:14:4f:
         77:5b:0e:2e:1d:f5:07:75:b9:dd:2b:38:87:56:9e:a4:3b:18:
         5e:aa:1f:4d:86:21:1e:e9:a7:29:e6:02:db:de:31:1b:f9:20:
         36:af:91:af:34:81:df:38:1c:5a:d1:b3:12:e4:06:aa:8f:a7:
         f2:f9:75:df:95:e1:16:45:f4:af:49:71:1d:41:15:5b:f1:59:
         f6:e1:cb:6b:d3:d7:1e:36:17:bd:1b:25:b6:e3:c4:47:f2:21:
         a9:15:b5:52:96:65:fe:f7:34:ec:9e:89:cc:6e:5c:10:d1:72:
         6d:ac:bd:b9:da:ff:c2:01:63:56:26:a4:f9:bb:e1:14:2b:63:
         5b:ed:66:c3:bf:4e:b6:63:1a:aa:20:87:0a:c9:e8:f7:b3:32:
         ab:ff:69:9c:78:b2:1e:50:b1:8a:57:df:f8:b4:97:e5:65:0d:
         d0:61:ad:ef:a4:4b:38:c0:6c:6e:01:00:ac:17:44:cd:62:f8:
         35:8f:ab:c8:b0:07:c8:a5:10:64:43:2a:07:e7:e0:44:6a:2b:
         cb:f5:27:13:1f:8c:b9:08:e2:7a:ea:3b:23:8e:71:d6:9e:7f:
         17:f0:12:fc:d7:7c:24:9b:ce:3a:e3:2d:39:4b:ed:04:40:f1:
         43:e7:81:0e:c8:97:40:c0
-----BEGIN CERTIFICATE-----
MIIE2TCCAsGgAwIBAgIBBTANBgkqhkiG9w0BAQUFADCBojELMAkGA1UEBhMCREUx
DzANBgNVBAgTBkJlcmxpbjEPMA0GA1UEBxMGQmVybGluMQ8wDQYDVQQKEwZaZW5P
cHMxEzARBgNVBAsTCk9wZXJhdGlvbnMxJjAkBgNVBAMTHUNlcnRpZmljYXRlIFNp
Z25pbmcgQXV0aG9yaXR5MSMwIQYJKoZIhvcNAQkBFhRob3N0bWFzdGVyQHplbm9w
cy5kZTAeFw0xMzAzMDkwOTUzNTJaFw0xNDAzMDkwOTUzNTJaMG4xCzAJBgNVBAYT
AkRFMQ8wDQYDVQQIEwZCZXJsaW4xDzANBgNVBAcTBkJlcmxpbjEPMA0GA1UEChMG
WmVuT3BzMRMwEQYDVQQLEwpPcGVyYXRpb25zMRcwFQYDVQQDEw5kZXYuemVudG9v
Lm9yZzCCASIwDQYJKoZIhvcNAQEBBQADggEPADCCAQoCggEBAOy5rLvQ12BRsLH0
z3D+Yf9pVlf58ie5hFEEVW/luEr6tHiWJH4ZG840A88KT5apXea4FE+tlGu1p43X
XvcPJS7LZm3F8dw8d5a5OvBkQnqolGVuY673TyE3UOjp/a/+1ZsL1rDS7O8ycSkf
t7WVE9OGylEBCVf2FTcA3pHdrZ72SiEcJq1sX469TPySyeJiYCjUA/vYnteOMQd+
/eYFiQOPrPKc4117dvFxW6RculxPwQZdX15Hb0V6eKyNnxnPYj6x81iUoP375klT
DPQ4IQtVSw4ftkvn0pa2abXnnZl9yYuuRBnAiWJAo4ZeMsiJ7Ji0nz2Nfk5kPFy1
r26kWbkCAwEAAaNNMEswCQYDVR0TBAIwADAdBgNVHQ4EFgQUhIsZDzHxgNCel5yS
xLgbkzSqsT8wHwYDVR0jBBgwFoAUT01kFtMLMAyW44bo0g9oIM/Q3M0wDQYJKoZI
hvcNAQEFBQADggIBAGwytFP5hl4kCoBpg41j4trT52yfTcSOEg80V0lb1a4DC7sd
FjdHxBYpyidhuyvHK58T6jpkZfcNqxZ7y/4dEGai9N/5DZy24lsx+jSE8S27Qd2B
VBMt9IEEcQprr5TNZ7XKJBrKMu8aX/7RElEnFCXKeaySp7nv2MsXFSbwmd7ZkZ4c
VFblUOArcHUxZqCoT/xHidMm/yzzsgwkrFFWrl3Agz/EUqZf6zBQHpPBf+/0/+DS
Xbto6c5Loto1Bn4L6CW0bvQoRgn9xLvdYLmoTjs5AIr/Uj5fZcnaLOvZzUBYmkLH
bEHHxIwRsFGRkbVnM/++bhafnG1cd9PvEV6Ra7pJe75NEK88QcxbcoIUT3dbDi4d
9Qd1ud0rOIdWnqQ7GF6qH02GIR7ppynmAtveMRv5IDavka80gd84HFrRsxLkBqqP
p/L5dd+V4RZF9K9JcR1BFVvxWfbhy2vT1x42F70bJbbjxEfyIakVtVKWZf73NOye
icxuXBDRcm2svbna/8IBY1YmpPm74RQrY1vtZsO/TrZjGqoghwrJ6PezMqv/aZx4
sh5QsYpX3/i0l+VlDdBhre+kSzjAbG4BAKwXRM1i+DWPq8iwB8ilEGRDKgfn4ERq
K8v1JxMfjLkI4nrqOyOOcdaefxfwEvzXfCSbzjrjLTlL7QRA8UPngQ7Il0DA
-----END CERTIFICATE-----
