Certificate:
    Data:
        Version: 3 (0x2)
        Serial Number: 17 (0x11)
        Signature Algorithm: sha1WithRSAEncryption
        Issuer: C=DE, ST=Berlin, L=Berlin, O=Example Com, OU=Operations, CN=Certificate Signing Authority/emailAddress=hostmaster@example.com
        Validity
            Not Before: May 13 15:34:52 2012 GMT
            Not After : May 13 15:34:52 2013 GMT
        Subject: C=DE, ST=Berlin, L=Berlin, O=Example Com, OU=Operations, CN=gentoo-testing.home.xnull.de
        Subject Public Key Info:
            Public Key Algorithm: rsaEncryption
                Public-Key: (2048 bit)
                Modulus:
                    00:a2:d2:67:f8:f1:35:c7:62:a3:d1:3e:cf:f8:b0:
                    23:d5:dc:fa:37:cc:1d:90:29:73:a0:3b:1d:ab:7c:
                    51:f4:ae:24:3f:97:fc:9e:fb:46:8c:ad:04:c2:e3:
                    aa:2c:a9:53:8a:87:c1:38:ae:75:a7:6b:53:23:1f:
                    23:17:d3:cc:9c:4f:d2:c3:ce:e7:d9:5f:6f:99:3e:
                    40:07:bc:fa:cf:63:9c:55:07:58:9a:37:c1:4b:db:
                    55:51:7c:54:38:50:6f:8c:62:93:a2:d4:01:fc:66:
                    c3:35:aa:63:4c:89:3f:df:bf:cc:d6:8a:29:62:df:
                    31:3c:fd:21:d6:85:98:2f:fb:07:83:70:1a:0b:b9:
                    40:60:9a:32:57:9f:1e:ed:cc:2a:57:93:9c:8d:8f:
                    0a:5f:48:17:ff:ee:5a:d6:5b:4e:d6:61:95:a1:0a:
                    72:0e:ee:3c:93:16:d6:67:9f:5f:27:49:ed:28:3c:
                    39:39:d8:40:cf:dc:a6:a8:b7:91:96:98:29:d0:7a:
                    00:9f:e4:61:50:7b:ff:97:4f:00:95:18:35:b5:e6:
                    44:48:c2:6a:67:b0:27:35:25:d4:33:52:5c:f0:5a:
                    e2:93:88:ab:ae:74:32:2f:e2:56:44:62:4b:fd:48:
                    da:81:0c:9c:d5:ee:35:e7:d5:79:fa:f5:f1:7e:74:
                    39:85
                Exponent: 65537 (0x10001)
        X509v3 extensions:
            X509v3 Basic Constraints: 
                CA:FALSE
            X509v3 Subject Key Identifier: 
                79:E3:F8:76:A9:3C:2F:85:F1:F1:57:41:40:9E:C8:EC:58:94:CC:7A
            X509v3 Authority Key Identifier: 
                keyid:50:33:E6:BF:4D:B3:66:AA:26:97:06:9B:DB:57:24:DF:C1:49:66:E3

    Signature Algorithm: sha1WithRSAEncryption
        71:74:a4:5f:41:64:59:a3:1e:9f:49:14:9b:ee:c7:f3:65:43:
        9e:23:e3:e3:91:a8:81:01:89:de:4b:ee:b8:e2:1b:b7:65:b2:
        c7:0a:4e:bd:cd:33:d8:50:b7:49:98:ed:14:ab:03:14:c7:7f:
        f1:07:66:66:d1:0a:37:f3:44:a2:b6:99:8a:3d:47:ec:e5:52:
        02:cc:42:7a:50:ae:e0:09:5a:5c:ce:88:8c:06:fe:34:55:e5:
        47:c1:a9:bf:c5:70:af:97:ed:cf:56:dc:8c:2a:c4:45:9d:85:
        3f:b6:fa:8b:45:18:f7:2b:f3:d0:ef:e1:76:ff:fa:13:90:a2:
        5d:d4:c3:1d:0e:f4:fd:2b:07:81:0f:d8:f3:9c:72:f1:ed:5f:
        1f:e4:a0:25:12:cc:cb:d7:8e:8d:64:6f:06:0a:70:34:06:cf:
        1b:71:a5:96:5a:14:70:4d:06:c4:2b:3c:8f:10:33:2f:27:0a:
        45:56:42:8e:62:e4:ee:fe:48:9a:53:9a:f1:84:ed:7c:5b:4a:
        98:1a:1d:f2:18:73:48:55:e6:10:bd:15:c8:ff:e3:ca:01:af:
        55:1c:a5:e6:fb:f5:f5:6b:f8:62:2a:95:06:36:b8:b0:23:12:
        c6:55:8d:c6:5e:db:bc:5c:9b:3b:2d:9f:c0:68:3c:16:15:47:
        68:cd:43:ca:1e:70:eb:e6:26:9e:b9:f0:94:1e:4f:14:fc:cd:
        2b:49:df:4a:1d:99:e2:42:04:55:49:95:01:bb:be:d3:60:99:
        ba:18:18:b4:2d:6e:7b:ba:42:7f:0d:aa:a8:78:68:96:e5:34:
        db:b8:5c:39:fc:93:3b:6d:8d:f0:08:37:2e:62:c4:82:a6:cd:
        ee:60:4a:17:3f:d2:69:7d:cc:f6:2c:b1:3a:75:36:42:a1:d3:
        3b:0f:b9:bb:37:1e:1f:07:a1:24:32:c5:e0:0e:c1:a5:9d:2b:
        05:6d:cc:ed:7a:29:73:0f:ea:0d:e9:00:85:80:03:50:08:be:
        73:32:8e:9b:d9:12:6d:6b:b0:58:07:a0:c3:76:c4:56:25:e8:
        a4:de:38:fa:90:58:a1:c4:87:d8:fc:9d:d3:32:ae:99:23:09:
        87:aa:dd:bb:f4:ad:ec:0e:87:21:ee:9c:67:84:61:a7:34:de:
        87:e7:2a:10:67:ee:e9:16:1d:6c:7b:05:3f:95:c6:da:4e:e8:
        3a:e5:38:4f:f1:d7:a4:3f:62:54:97:ab:c1:e4:22:b8:01:c6:
        f6:d9:6c:dd:59:90:22:20:a1:71:b5:22:e9:08:58:03:75:7b:
        c3:ad:09:e3:cc:8f:c8:bc:72:31:47:b5:4c:99:70:17:4a:2d:
        c0:ed:27:22:fc:00:10:36
-----BEGIN CERTIFICATE-----
MIIE9DCCAtygAwIBAgIBETANBgkqhkiG9w0BAQUFADCBqTELMAkGA1UEBhMCREUx
DzANBgNVBAgTBkJlcmxpbjEPMA0GA1UEBxMGQmVybGluMRQwEgYDVQQKEwtFeGFt
cGxlIENvbTETMBEGA1UECxMKT3BlcmF0aW9uczEmMCQGA1UEAxMdQ2VydGlmaWNh
dGUgU2lnbmluZyBBdXRob3JpdHkxJTAjBgkqhkiG9w0BCQEWFmhvc3RtYXN0ZXJA
ZXhhbXBsZS5jb20wHhcNMTIwNTEzMTUzNDUyWhcNMTMwNTEzMTUzNDUyWjCBgTEL
MAkGA1UEBhMCREUxDzANBgNVBAgTBkJlcmxpbjEPMA0GA1UEBxMGQmVybGluMRQw
EgYDVQQKEwtFeGFtcGxlIENvbTETMBEGA1UECxMKT3BlcmF0aW9uczElMCMGA1UE
AxMcZ2VudG9vLXRlc3RpbmcuaG9tZS54bnVsbC5kZTCCASIwDQYJKoZIhvcNAQEB
BQADggEPADCCAQoCggEBAKLSZ/jxNcdio9E+z/iwI9Xc+jfMHZApc6A7Hat8UfSu
JD+X/J77RoytBMLjqiypU4qHwTiudadrUyMfIxfTzJxP0sPO59lfb5k+QAe8+s9j
nFUHWJo3wUvbVVF8VDhQb4xik6LUAfxmwzWqY0yJP9+/zNaKKWLfMTz9IdaFmC/7
B4NwGgu5QGCaMlefHu3MKleTnI2PCl9IF//uWtZbTtZhlaEKcg7uPJMW1mefXydJ
7Sg8OTnYQM/cpqi3kZaYKdB6AJ/kYVB7/5dPAJUYNbXmREjCamewJzUl1DNSXPBa
4pOIq650Mi/iVkRiS/1I2oEMnNXuNefVefr18X50OYUCAwEAAaNNMEswCQYDVR0T
BAIwADAdBgNVHQ4EFgQUeeP4dqk8L4Xx8VdBQJ7I7FiUzHowHwYDVR0jBBgwFoAU
UDPmv02zZqomlwab21ck38FJZuMwDQYJKoZIhvcNAQEFBQADggIBAHF0pF9BZFmj
Hp9JFJvux/NlQ54j4+ORqIEBid5L7rjiG7dlsscKTr3NM9hQt0mY7RSrAxTHf/EH
ZmbRCjfzRKK2mYo9R+zlUgLMQnpQruAJWlzOiIwG/jRV5UfBqb/FcK+X7c9W3Iwq
xEWdhT+2+otFGPcr89Dv4Xb/+hOQol3Uwx0O9P0rB4EP2POccvHtXx/koCUSzMvX
jo1kbwYKcDQGzxtxpZZaFHBNBsQrPI8QMy8nCkVWQo5i5O7+SJpTmvGE7XxbSpga
HfIYc0hV5hC9Fcj/48oBr1Ucpeb79fVr+GIqlQY2uLAjEsZVjcZe27xcmzstn8Bo
PBYVR2jNQ8oecOvmJp658JQeTxT8zStJ30odmeJCBFVJlQG7vtNgmboYGLQtbnu6
Qn8Nqqh4aJblNNu4XDn8kzttjfAINy5ixIKmze5gShc/0ml9zPYssTp1NkKh0zsP
ubs3Hh8HoSQyxeAOwaWdKwVtzO16KXMP6g3pAIWAA1AIvnMyjpvZEm1rsFgHoMN2
xFYl6KTeOPqQWKHEh9j8ndMyrpkjCYeq3bv0rewOhyHunGeEYac03ofnKhBn7ukW
HWx7BT+VxtpO6DrlOE/x16Q/YlSXq8HkIrgBxvbZbN1ZkCIgoXG1IukIWAN1e8Ot
CePMj8i8cjFHtUyZcBdKLcDtJyL8ABA2
-----END CERTIFICATE-----
