Certificate:
    Data:
        Version: 3 (0x2)
        Serial Number: 6 (0x6)
    Signature Algorithm: sha1WithRSAEncryption
        Issuer: C=DE, ST=Berlin, L=Berlin, O=ZenOps, OU=Operations, CN=Certificate Signing Authority/emailAddress=hostmaster@zenops.de
        Validity
            Not Before: Mar  9 09:53:53 2013 GMT
            Not After : Mar  9 09:53:53 2014 GMT
        Subject: C=DE, ST=Berlin, L=Berlin, O=ZenOps, OU=Operations, CN=iberico.kanbanero.net
        Subject Public Key Info:
            Public Key Algorithm: rsaEncryption
                Public-Key: (2048 bit)
                Modulus:
                    00:ac:d4:62:25:e9:36:78:61:2b:b1:f7:ea:47:37:
                    d8:8c:1c:2b:5d:5c:d7:1f:14:0f:ef:de:80:15:29:
                    2e:6f:4f:05:1d:ed:bc:5d:6b:3c:38:80:f7:d2:3c:
                    70:a2:ed:7b:5b:f6:47:75:11:82:b4:43:47:2c:0a:
                    7a:e6:ce:39:62:46:15:59:d3:26:3a:ba:f9:e1:d3:
                    02:a4:9e:51:17:31:1a:76:19:0a:65:58:42:d0:43:
                    96:aa:0c:90:38:6b:06:97:1e:71:e2:8f:d0:aa:b8:
                    9a:84:3a:4d:24:ad:56:08:85:2f:c3:92:26:9b:c6:
                    f2:a9:22:54:1c:d8:db:52:90:84:94:da:5e:2e:f7:
                    67:36:5e:07:7d:e8:d9:b9:29:d7:b1:1c:16:1c:bd:
                    85:da:72:88:2c:7a:3c:cf:6f:30:ec:b0:b5:1d:92:
                    e7:7c:f6:06:63:9e:06:49:13:69:da:31:80:14:16:
                    44:fd:3a:af:bd:33:ab:38:a6:a9:c0:c0:e4:77:b0:
                    70:05:1e:84:f7:a3:6d:bd:59:90:23:36:67:25:62:
                    72:3e:67:85:18:ee:d8:c1:ea:31:de:21:aa:b7:67:
                    a1:dc:a5:c9:8b:47:fb:3e:4f:a5:5c:73:7d:d5:db:
                    c5:b9:fe:4a:4d:34:a8:5c:33:e3:1e:b2:9d:8e:88:
                    b9:d3
                Exponent: 65537 (0x10001)
        X509v3 extensions:
            X509v3 Basic Constraints: 
                CA:FALSE
            X509v3 Subject Key Identifier: 
                5C:10:00:3F:F6:E5:18:C9:3E:8A:ED:4D:19:5F:E1:AB:39:5E:87:3C
            X509v3 Authority Key Identifier: 
                keyid:4F:4D:64:16:D3:0B:30:0C:96:E3:86:E8:D2:0F:68:20:CF:D0:DC:CD

    Signature Algorithm: sha1WithRSAEncryption
         2c:04:70:dd:a1:ca:1c:24:b5:b2:1b:01:9a:49:89:65:46:ae:
         fd:b7:2f:6f:5c:0e:c7:8e:bb:94:b3:1d:c9:c3:b6:e0:0c:0b:
         d2:95:41:8f:54:c7:da:0c:24:46:c6:fa:32:80:63:8b:e0:7a:
         8b:71:02:fe:45:57:79:ec:59:1c:ff:37:7f:ab:bc:8a:9b:b4:
         57:38:82:e7:ed:e5:91:5b:79:84:0e:62:49:dc:65:40:e8:90:
         7f:35:af:2a:06:89:52:2b:1b:37:78:80:51:1d:29:ef:ba:d4:
         3a:66:a8:0a:27:52:ea:bf:06:f2:c5:59:f0:bc:6e:6e:36:e8:
         1a:95:37:41:10:b0:b0:76:c4:22:62:73:2f:a7:c2:c2:49:b3:
         d9:26:fe:5f:f5:6d:bd:b6:37:ee:51:a4:cf:a0:1d:19:5d:ed:
         41:35:ef:66:6f:93:44:b2:10:12:87:0b:a6:86:c7:43:7c:f0:
         74:d3:f0:6d:11:d5:6c:b7:b0:bc:8e:05:27:db:d3:b6:bf:1b:
         82:06:63:dc:8c:bc:66:54:23:96:9e:a1:11:43:5b:3b:6a:d4:
         90:0c:26:25:c5:4d:d7:69:ed:90:bb:e0:95:cd:a0:f8:f9:5c:
         b6:6b:e9:ff:80:9f:41:a8:48:e6:c9:df:07:c3:b7:22:b0:b6:
         5d:e2:a8:4a:a3:58:fd:de:48:a5:a9:84:20:fc:26:62:b7:e0:
         5a:46:ea:05:eb:f1:07:7f:93:4c:3d:68:83:de:9d:8c:ce:1e:
         a4:08:68:33:aa:9e:2f:76:dc:c3:a8:89:a8:ac:b1:44:e5:1f:
         6b:93:75:8d:5e:ee:2c:cf:dc:f6:00:5c:43:87:ab:14:0c:c4:
         dd:d8:04:15:06:a3:c3:6f:63:73:4b:4c:a2:64:63:46:fe:01:
         7c:d9:97:3d:2e:af:8a:bc:65:22:fe:ee:b4:42:9e:21:98:1b:
         6c:9e:ce:85:96:65:04:01:1f:91:33:8c:8c:88:23:12:f5:c5:
         bc:b9:dd:fa:58:06:89:5c:a6:c2:fc:7a:bd:81:46:38:b8:28:
         19:cd:fc:bd:e6:46:3c:26:83:13:a7:e1:dc:ad:63:2c:2a:5e:
         d6:75:96:35:d2:d9:a4:ae:fc:53:76:c8:01:f5:cf:0a:74:8c:
         40:42:ca:99:c2:49:a4:68:4f:ac:65:74:58:b2:be:c9:5e:13:
         22:17:db:34:15:75:0a:83:0f:e7:1c:0d:df:02:5c:4a:d0:9f:
         55:f9:ec:fa:d1:a9:70:80:1a:a6:0e:0e:0a:fb:a8:04:d7:1f:
         6f:e6:81:50:88:bb:6d:4b:73:ad:0d:47:6d:ce:f5:5d:6e:1a:
         4c:8b:be:af:56:65:0c:43
-----BEGIN CERTIFICATE-----
MIIE4DCCAsigAwIBAgIBBjANBgkqhkiG9w0BAQUFADCBojELMAkGA1UEBhMCREUx
DzANBgNVBAgTBkJlcmxpbjEPMA0GA1UEBxMGQmVybGluMQ8wDQYDVQQKEwZaZW5P
cHMxEzARBgNVBAsTCk9wZXJhdGlvbnMxJjAkBgNVBAMTHUNlcnRpZmljYXRlIFNp
Z25pbmcgQXV0aG9yaXR5MSMwIQYJKoZIhvcNAQkBFhRob3N0bWFzdGVyQHplbm9w
cy5kZTAeFw0xMzAzMDkwOTUzNTNaFw0xNDAzMDkwOTUzNTNaMHUxCzAJBgNVBAYT
AkRFMQ8wDQYDVQQIEwZCZXJsaW4xDzANBgNVBAcTBkJlcmxpbjEPMA0GA1UEChMG
WmVuT3BzMRMwEQYDVQQLEwpPcGVyYXRpb25zMR4wHAYDVQQDExVpYmVyaWNvLmth
bmJhbmVyby5uZXQwggEiMA0GCSqGSIb3DQEBAQUAA4IBDwAwggEKAoIBAQCs1GIl
6TZ4YSux9+pHN9iMHCtdXNcfFA/v3oAVKS5vTwUd7bxdazw4gPfSPHCi7Xtb9kd1
EYK0Q0csCnrmzjliRhVZ0yY6uvnh0wKknlEXMRp2GQplWELQQ5aqDJA4awaXHnHi
j9CquJqEOk0krVYIhS/DkiabxvKpIlQc2NtSkISU2l4u92c2Xgd96Nm5KdexHBYc
vYXacogsejzPbzDssLUdkud89gZjngZJE2naMYAUFkT9Oq+9M6s4pqnAwOR3sHAF
HoT3o229WZAjNmclYnI+Z4UY7tjB6jHeIaq3Z6HcpcmLR/s+T6Vcc33V28W5/kpN
NKhcM+Mesp2OiLnTAgMBAAGjTTBLMAkGA1UdEwQCMAAwHQYDVR0OBBYEFFwQAD/2
5RjJPortTRlf4as5Xoc8MB8GA1UdIwQYMBaAFE9NZBbTCzAMluOG6NIPaCDP0NzN
MA0GCSqGSIb3DQEBBQUAA4ICAQAsBHDdococJLWyGwGaSYllRq79ty9vXA7HjruU
sx3Jw7bgDAvSlUGPVMfaDCRGxvoygGOL4HqLcQL+RVd57Fkc/zd/q7yKm7RXOILn
7eWRW3mEDmJJ3GVA6JB/Na8qBolSKxs3eIBRHSnvutQ6ZqgKJ1LqvwbyxVnwvG5u
NugalTdBELCwdsQiYnMvp8LCSbPZJv5f9W29tjfuUaTPoB0ZXe1BNe9mb5NEshAS
hwumhsdDfPB00/BtEdVst7C8jgUn29O2vxuCBmPcjLxmVCOWnqERQ1s7atSQDCYl
xU3Xae2Qu+CVzaD4+Vy2a+n/gJ9BqEjmyd8Hw7cisLZd4qhKo1j93kilqYQg/CZi
t+BaRuoF6/EHf5NMPWiD3p2Mzh6kCGgzqp4vdtzDqImorLFE5R9rk3WNXu4sz9z2
AFxDh6sUDMTd2AQVBqPDb2NzS0yiZGNG/gF82Zc9Lq+KvGUi/u60Qp4hmBtsns6F
lmUEAR+RM4yMiCMS9cW8ud36WAaJXKbC/Hq9gUY4uCgZzfy95kY8JoMTp+HcrWMs
Kl7WdZY10tmkrvxTdsgB9c8KdIxAQsqZwkmkaE+sZXRYsr7JXhMiF9s0FXUKgw/n
HA3fAlxK0J9V+ez60alwgBqmDg4K+6gE1x9v5oFQiLttS3OtDUdtzvVdbhpMi76v
VmUMQw==
-----END CERTIFICATE-----
