Certificate:
    Data:
        Version: 3 (0x2)
        Serial Number: 21 (0x15)
        Signature Algorithm: sha1WithRSAEncryption
        Issuer: C=DE, ST=Berlin, L=Berlin, O=Example Com, OU=Operations, CN=Certificate Signing Authority/emailAddress=hostmaster@example.com
        Validity
            Not Before: Sep 22 12:52:05 2012 GMT
            Not After : Sep 22 12:52:05 2013 GMT
        Subject: C=DE, ST=Berlin, L=Berlin, O=Example Com, OU=Operations, CN=iberico.kanbanero.net
        Subject Public Key Info:
            Public Key Algorithm: rsaEncryption
                Public-Key: (2048 bit)
                Modulus:
                    00:dc:e5:ca:d8:09:2a:0e:b1:d4:f5:68:1a:5f:27:
                    55:a9:6d:9d:54:26:e8:5d:83:fe:fd:b3:69:37:4e:
                    57:78:49:19:f2:e4:8c:2e:5a:7e:f1:60:36:72:82:
                    51:65:a3:17:99:d1:20:c7:ce:75:18:5a:e5:2f:5b:
                    11:00:a2:1a:c9:0d:89:a9:a7:89:46:07:5b:88:e7:
                    b4:ee:07:52:d7:a1:be:56:34:3a:15:25:24:01:a6:
                    2b:2a:21:63:7a:14:81:f6:a0:9d:a6:30:bd:07:d8:
                    d8:ab:67:d5:1f:e8:c8:df:fa:48:c9:52:34:b8:3f:
                    97:bc:ec:e2:c9:38:89:84:bc:dd:94:e2:b9:ca:2f:
                    9f:bc:9b:ef:27:d3:6e:c2:50:fa:c2:1f:45:20:f5:
                    53:ca:bf:47:71:f0:57:cd:10:5e:27:cd:55:b0:43:
                    73:9e:c2:d3:3d:e9:9f:34:0e:29:ed:49:14:d2:2f:
                    82:ef:09:1e:90:3c:d2:9b:9c:24:33:10:14:f8:c8:
                    51:61:f5:03:8f:c9:24:40:1d:d0:d8:2d:eb:ed:cc:
                    e7:0a:37:e2:bb:1d:50:8c:6d:0f:7b:db:bc:21:92:
                    37:8e:e2:50:a2:00:f1:f8:eb:7b:6e:5c:d5:15:9b:
                    27:6d:1d:26:30:2a:d0:ba:21:de:54:7d:eb:c6:4c:
                    2b:13
                Exponent: 65537 (0x10001)
        X509v3 extensions:
            X509v3 Basic Constraints: 
                CA:FALSE
            X509v3 Subject Key Identifier: 
                47:8D:1E:7D:2D:F1:B7:ED:5D:00:93:6C:00:F7:55:97:84:C1:C1:62
            X509v3 Authority Key Identifier: 
                keyid:50:33:E6:BF:4D:B3:66:AA:26:97:06:9B:DB:57:24:DF:C1:49:66:E3

    Signature Algorithm: sha1WithRSAEncryption
        15:44:54:8e:3c:35:73:b1:e2:ab:d3:f1:a0:b9:22:85:5c:10:
        bc:3d:d0:5d:f4:e2:78:50:e6:e0:be:83:77:cd:17:89:7c:f3:
        e9:6b:73:de:f7:14:4e:3c:d7:27:16:e6:2d:e5:b6:78:91:63:
        de:8c:b3:c2:22:30:65:01:0b:32:93:04:ef:5f:c1:82:17:3c:
        40:c9:19:70:5d:e4:36:cd:ef:07:f3:82:28:98:ea:fd:64:c4:
        f7:bc:f9:40:ec:5b:b5:06:84:d3:54:d2:14:94:1f:33:28:17:
        c5:ae:9b:29:57:ea:f9:93:95:b0:3d:12:d0:42:b2:84:65:88:
        7c:cc:a8:33:15:31:40:48:c8:12:9b:99:85:14:59:0a:fe:e2:
        c3:b1:d9:47:0d:84:bd:99:4d:5c:7d:49:ed:55:3f:f3:40:b1:
        bd:f3:ec:c0:2d:b6:a5:a0:56:c7:61:58:9c:4e:ef:4b:dd:60:
        58:9e:8c:67:71:b2:c9:16:eb:0f:a5:57:93:8d:f7:77:38:84:
        a5:12:7a:3e:4d:a6:b0:c8:b9:0d:6b:ad:7e:45:1d:cd:8a:d7:
        65:49:45:84:50:b2:84:73:9f:36:0a:70:7b:ec:df:8c:52:05:
        2b:2c:49:73:5c:3c:52:b5:3a:e0:70:b2:20:7e:92:7c:8b:8a:
        1e:ea:68:22:35:59:c8:86:c3:9a:03:5c:c9:14:ca:7c:cf:38:
        a7:9d:50:5e:b0:c0:3e:15:1f:b0:8b:08:08:18:05:b3:8a:9a:
        bb:4b:59:fb:bc:b6:c1:1f:1c:39:fa:f1:17:96:da:62:1d:b1:
        6f:a3:99:ef:30:53:a8:e1:58:a1:83:4d:b4:ed:0f:e4:44:14:
        7b:ec:ed:4d:66:2e:b6:8f:04:35:d1:03:dc:47:0f:80:83:3f:
        3e:93:c1:ad:f2:57:f6:e8:3f:5c:9f:fa:8f:87:ff:3b:dd:d3:
        08:6f:74:4f:89:0c:d1:f2:9c:bc:e5:a3:41:e8:c4:06:e6:29:
        ad:ca:a6:14:c3:81:c0:5f:6e:5f:7c:1c:93:40:20:39:ba:f8:
        60:86:6c:cb:df:d8:c2:a6:a0:75:19:e8:9c:57:85:1a:0c:ce:
        c9:86:6a:94:58:77:5c:f8:d0:dc:c8:19:59:fa:41:84:84:c2:
        ab:e8:0a:98:20:00:f9:aa:e4:6b:85:73:ab:4e:25:13:0d:c1:
        13:a3:68:9a:50:d8:ee:cc:27:f2:ca:20:70:4a:0e:c8:64:06:
        e4:cb:1e:41:e1:ad:77:1a:97:38:f5:ed:51:21:6b:10:85:2a:
        40:43:26:95:73:da:ab:60:5b:57:89:60:1b:43:3c:c2:86:34:
        a7:d7:cd:18:45:dd:7d:e9
-----BEGIN CERTIFICATE-----
MIIE7DCCAtSgAwIBAgIBFTANBgkqhkiG9w0BAQUFADCBqTELMAkGA1UEBhMCREUx
DzANBgNVBAgTBkJlcmxpbjEPMA0GA1UEBxMGQmVybGluMRQwEgYDVQQKEwtFeGFt
cGxlIENvbTETMBEGA1UECxMKT3BlcmF0aW9uczEmMCQGA1UEAxMdQ2VydGlmaWNh
dGUgU2lnbmluZyBBdXRob3JpdHkxJTAjBgkqhkiG9w0BCQEWFmhvc3RtYXN0ZXJA
ZXhhbXBsZS5jb20wHhcNMTIwOTIyMTI1MjA1WhcNMTMwOTIyMTI1MjA1WjB6MQsw
CQYDVQQGEwJERTEPMA0GA1UECBMGQmVybGluMQ8wDQYDVQQHEwZCZXJsaW4xFDAS
BgNVBAoTC0V4YW1wbGUgQ29tMRMwEQYDVQQLEwpPcGVyYXRpb25zMR4wHAYDVQQD
ExVpYmVyaWNvLmthbmJhbmVyby5uZXQwggEiMA0GCSqGSIb3DQEBAQUAA4IBDwAw
ggEKAoIBAQDc5crYCSoOsdT1aBpfJ1WpbZ1UJuhdg/79s2k3Tld4SRny5IwuWn7x
YDZyglFloxeZ0SDHznUYWuUvWxEAohrJDYmpp4lGB1uI57TuB1LXob5WNDoVJSQB
pisqIWN6FIH2oJ2mML0H2NirZ9Uf6Mjf+kjJUjS4P5e87OLJOImEvN2U4rnKL5+8
m+8n027CUPrCH0Ug9VPKv0dx8FfNEF4nzVWwQ3OewtM96Z80DintSRTSL4LvCR6Q
PNKbnCQzEBT4yFFh9QOPySRAHdDYLevtzOcKN+K7HVCMbQ9727whkjeO4lCiAPH4
63tuXNUVmydtHSYwKtC6Id5UfevGTCsTAgMBAAGjTTBLMAkGA1UdEwQCMAAwHQYD
VR0OBBYEFEeNHn0t8bftXQCTbAD3VZeEwcFiMB8GA1UdIwQYMBaAFFAz5r9Ns2aq
JpcGm9tXJN/BSWbjMA0GCSqGSIb3DQEBBQUAA4ICAQAVRFSOPDVzseKr0/GguSKF
XBC8PdBd9OJ4UObgvoN3zReJfPPpa3Pe9xROPNcnFuYt5bZ4kWPejLPCIjBlAQsy
kwTvX8GCFzxAyRlwXeQ2ze8H84IomOr9ZMT3vPlA7Fu1BoTTVNIUlB8zKBfFrpsp
V+r5k5WwPRLQQrKEZYh8zKgzFTFASMgSm5mFFFkK/uLDsdlHDYS9mU1cfUntVT/z
QLG98+zALbaloFbHYVicTu9L3WBYnoxncbLJFusPpVeTjfd3OISlEno+TaawyLkN
a61+RR3NitdlSUWEULKEc582CnB77N+MUgUrLElzXDxStTrgcLIgfpJ8i4oe6mgi
NVnIhsOaA1zJFMp8zzinnVBesMA+FR+wiwgIGAWzipq7S1n7vLbBHxw5+vEXltpi
HbFvo5nvMFOo4Vihg0207Q/kRBR77O1NZi62jwQ10QPcRw+Agz8+k8Gt8lf26D9c
n/qPh/873dMIb3RPiQzR8py85aNB6MQG5imtyqYUw4HAX25ffByTQCA5uvhghmzL
39jCpqB1GeicV4UaDM7JhmqUWHdc+NDcyBlZ+kGEhMKr6AqYIAD5quRrhXOrTiUT
DcETo2iaUNjuzCfyyiBwSg7IZAbkyx5B4a13Gpc49e1RIWsQhSpAQyaVc9qrYFtX
iWAbQzzChjSn180YRd196Q==
-----END CERTIFICATE-----
