Certificate:
    Data:
        Version: 3 (0x2)
        Serial Number: 6 (0x6)
        Signature Algorithm: sha1WithRSAEncryption
        Issuer: C=DE, ST=Berlin, L=Berlin, O=Example Com, OU=Operations, CN=Certificate Signing Authority/emailAddress=hostmaster@example.com
        Validity
            Not Before: Mar 14 17:07:43 2012 GMT
            Not After : Mar 14 17:07:43 2013 GMT
        Subject: C=DE, ST=Berlin, L=Berlin, O=Example Com, OU=Operations, CN=my.xnull.de
        Subject Public Key Info:
            Public Key Algorithm: rsaEncryption
                Public-Key: (2048 bit)
                Modulus:
                    00:b7:9c:ac:c6:85:ae:30:4f:77:8e:d4:bd:9a:ff:
                    06:4b:bb:c0:a6:bc:05:6d:33:18:fb:52:a0:30:58:
                    4b:1f:72:5b:aa:e9:77:54:28:4e:58:06:33:01:36:
                    54:84:2c:0d:b2:f4:e2:d3:b9:7a:7f:9c:a1:d7:cf:
                    2a:9f:16:9e:d0:39:76:52:0b:bd:8f:59:03:af:db:
                    8f:b9:08:c6:f0:fb:ed:bf:3f:fa:83:c1:db:4d:2d:
                    e6:9c:8b:ea:70:ce:0f:b4:7e:5b:37:c6:e6:64:bf:
                    31:16:b9:4a:78:93:c7:ca:6a:bd:ff:fb:8e:a4:bc:
                    7c:aa:96:c8:16:8f:c8:f6:cd:54:92:ba:8e:c7:20:
                    c8:ca:a9:49:da:4f:37:34:35:2b:63:d5:a5:25:32:
                    1c:af:89:60:7d:4a:fd:36:70:9a:de:42:43:25:57:
                    9f:dd:bc:52:5d:e7:f0:34:8d:fb:42:6b:70:2a:3a:
                    0b:9c:a7:59:9e:59:b9:ac:2b:a7:e9:59:9f:2c:a6:
                    2c:d0:13:c5:08:67:2f:5e:3a:8f:85:14:ea:29:23:
                    0d:3a:de:10:cc:25:07:f6:7e:00:d8:87:b2:1d:64:
                    63:43:1d:21:40:b1:c2:cf:50:c2:44:79:56:c0:5f:
                    77:95:3f:20:34:ca:36:2f:2b:42:c3:44:2b:f7:a3:
                    6e:d5
                Exponent: 65537 (0x10001)
        X509v3 extensions:
            X509v3 Basic Constraints: 
                CA:FALSE
            X509v3 Subject Key Identifier: 
                56:A8:8F:C4:1D:ED:99:7B:98:12:3E:51:70:B6:21:2E:C3:88:F0:5C
            X509v3 Authority Key Identifier: 
                keyid:50:33:E6:BF:4D:B3:66:AA:26:97:06:9B:DB:57:24:DF:C1:49:66:E3

    Signature Algorithm: sha1WithRSAEncryption
        7a:d4:3e:84:b1:2a:bb:02:40:52:bc:99:ed:19:bf:f6:8e:3a:
        2a:6c:3c:c5:53:94:05:aa:6c:f9:1a:1d:4e:21:2e:87:cf:7f:
        66:54:09:9b:94:38:d3:58:b8:16:6c:5f:0d:f3:7f:25:1d:ae:
        3b:86:23:b3:9b:42:d9:da:53:7e:0f:80:51:77:46:86:c9:5e:
        45:2b:5a:98:8b:bb:1c:ea:66:73:a8:4f:bb:00:bb:55:70:9e:
        46:a2:8b:74:7c:29:2b:b8:5a:d9:c9:58:7d:b9:8d:19:95:10:
        5d:0a:f3:c9:fa:21:f4:c2:b0:72:87:1b:03:6c:26:72:2c:95:
        01:3e:25:d1:19:e1:45:de:68:a2:d1:35:54:3a:13:08:63:0a:
        8e:e9:b1:6d:47:c8:47:5b:1e:a2:db:e6:1c:16:3f:52:66:8e:
        81:b2:3b:79:f3:5c:1f:01:09:cc:49:5f:52:10:e6:13:4a:c6:
        1d:46:6c:1c:22:8c:55:bd:53:d3:24:69:d1:4d:83:9a:0e:6b:
        5b:b0:b3:ae:b8:1b:18:3c:e4:45:d6:5a:75:e5:65:ca:3e:7f:
        a8:e2:dc:be:d0:32:1d:c8:e6:bb:c0:98:04:e3:da:2a:9c:7d:
        10:50:6c:c2:ea:83:d0:79:e4:37:46:c9:5f:66:ae:7b:e2:eb:
        b2:e8:67:ac:cb:17:2b:27:8a:bd:16:98:17:a8:85:e6:9d:8b:
        59:62:01:87:6c:d8:35:9e:44:23:42:f2:1e:d6:93:0d:6e:fb:
        cf:73:95:84:fa:5c:43:7f:43:67:9a:88:57:dc:01:2e:0d:d4:
        c9:8c:59:60:72:18:a8:57:23:e2:a4:1d:f7:7c:27:68:d2:08:
        ed:a3:93:32:d6:63:11:07:83:27:b1:56:b3:80:f1:2a:7c:d3:
        05:2b:a4:3a:95:73:f9:40:ed:c7:dc:6b:c2:12:01:24:5f:87:
        62:68:07:48:8e:f8:e2:ff:c1:fc:c8:a6:78:58:cd:87:78:d4:
        5f:a8:45:0d:f8:35:98:4f:cf:6e:37:4c:c0:55:fe:b4:df:48:
        b6:68:44:cf:66:91:2c:66:e8:1c:01:40:86:57:c2:f0:34:4d:
        6b:6c:11:a6:04:00:8c:02:b9:10:46:5a:11:4c:65:b6:49:61:
        de:24:02:87:d7:a3:c7:51:cb:c7:b6:22:f3:35:5a:2b:24:f8:
        34:dd:d0:d7:54:ab:6e:bb:2a:ed:ea:2f:40:8c:7e:48:f0:0e:
        81:ac:bd:93:cc:bd:0d:68:ce:cf:80:17:85:ac:9c:09:a9:6f:
        dc:ab:fc:a5:0b:2b:ea:f4:f2:eb:77:d9:56:e8:06:b0:3c:91:
        f5:e6:f0:9d:66:b0:04:9e
-----BEGIN CERTIFICATE-----
MIIE4jCCAsqgAwIBAgIBBjANBgkqhkiG9w0BAQUFADCBqTELMAkGA1UEBhMCREUx
DzANBgNVBAgTBkJlcmxpbjEPMA0GA1UEBxMGQmVybGluMRQwEgYDVQQKEwtFeGFt
cGxlIENvbTETMBEGA1UECxMKT3BlcmF0aW9uczEmMCQGA1UEAxMdQ2VydGlmaWNh
dGUgU2lnbmluZyBBdXRob3JpdHkxJTAjBgkqhkiG9w0BCQEWFmhvc3RtYXN0ZXJA
ZXhhbXBsZS5jb20wHhcNMTIwMzE0MTcwNzQzWhcNMTMwMzE0MTcwNzQzWjBwMQsw
CQYDVQQGEwJERTEPMA0GA1UECBMGQmVybGluMQ8wDQYDVQQHEwZCZXJsaW4xFDAS
BgNVBAoTC0V4YW1wbGUgQ29tMRMwEQYDVQQLEwpPcGVyYXRpb25zMRQwEgYDVQQD
EwtteS54bnVsbC5kZTCCASIwDQYJKoZIhvcNAQEBBQADggEPADCCAQoCggEBALec
rMaFrjBPd47UvZr/Bku7wKa8BW0zGPtSoDBYSx9yW6rpd1QoTlgGMwE2VIQsDbL0
4tO5en+codfPKp8WntA5dlILvY9ZA6/bj7kIxvD77b8/+oPB200t5pyL6nDOD7R+
WzfG5mS/MRa5SniTx8pqvf/7jqS8fKqWyBaPyPbNVJK6jscgyMqpSdpPNzQ1K2PV
pSUyHK+JYH1K/TZwmt5CQyVXn928Ul3n8DSN+0JrcCo6C5ynWZ5Zuawrp+lZnyym
LNATxQhnL146j4UU6ikjDTreEMwlB/Z+ANiHsh1kY0MdIUCxws9QwkR5VsBfd5U/
IDTKNi8rQsNEK/ejbtUCAwEAAaNNMEswCQYDVR0TBAIwADAdBgNVHQ4EFgQUVqiP
xB3tmXuYEj5RcLYhLsOI8FwwHwYDVR0jBBgwFoAUUDPmv02zZqomlwab21ck38FJ
ZuMwDQYJKoZIhvcNAQEFBQADggIBAHrUPoSxKrsCQFK8me0Zv/aOOipsPMVTlAWq
bPkaHU4hLofPf2ZUCZuUONNYuBZsXw3zfyUdrjuGI7ObQtnaU34PgFF3RobJXkUr
WpiLuxzqZnOoT7sAu1Vwnkaii3R8KSu4WtnJWH25jRmVEF0K88n6IfTCsHKHGwNs
JnIslQE+JdEZ4UXeaKLRNVQ6EwhjCo7psW1HyEdbHqLb5hwWP1JmjoGyO3nzXB8B
CcxJX1IQ5hNKxh1GbBwijFW9U9MkadFNg5oOa1uws664Gxg85EXWWnXlZco+f6ji
3L7QMh3I5rvAmATj2iqcfRBQbMLqg9B55DdGyV9mrnvi67LoZ6zLFysnir0WmBeo
headi1liAYds2DWeRCNC8h7Wkw1u+89zlYT6XEN/Q2eaiFfcAS4N1MmMWWByGKhX
I+KkHfd8J2jSCO2jkzLWYxEHgyexVrOA8Sp80wUrpDqVc/lA7cfca8ISASRfh2Jo
B0iO+OL/wfzIpnhYzYd41F+oRQ34NZhPz243TMBV/rTfSLZoRM9mkSxm6BwBQIZX
wvA0TWtsEaYEAIwCuRBGWhFMZbZJYd4kAofXo8dRy8e2IvM1Wisk+DTd0NdUq267
Ku3qL0CMfkjwDoGsvZPMvQ1ozs+AF4WsnAmpb9yr/KULK+r08ut32VboBrA8kfXm
8J1msASe
-----END CERTIFICATE-----
