Certificate:
    Data:
        Version: 3 (0x2)
        Serial Number: 23 (0x17)
        Signature Algorithm: sha1WithRSAEncryption
        Issuer: C=DE, ST=Berlin, L=Berlin, O=Example Com, OU=Operations, CN=Certificate Signing Authority/emailAddress=hostmaster@example.com
        Validity
            Not Before: Sep 22 13:11:38 2012 GMT
            Not After : Sep 22 13:11:38 2013 GMT
        Subject: C=DE, ST=Berlin, L=Berlin, O=Example Com, OU=Operations, CN=staging.kanbanero.net
        Subject Public Key Info:
            Public Key Algorithm: rsaEncryption
                Public-Key: (2048 bit)
                Modulus:
                    00:c3:3d:a6:95:a5:5f:96:8c:40:79:81:10:ee:52:
                    8a:40:2a:0a:8b:b9:bc:8c:46:3f:15:99:f7:8d:63:
                    95:9f:56:e1:dd:3f:f6:11:6b:16:a1:b4:9d:77:08:
                    f3:38:bf:ca:f3:cb:d2:50:0c:2b:36:68:e9:21:5d:
                    b4:38:45:98:48:32:66:ae:92:8a:9e:ab:41:8f:93:
                    85:09:0b:9d:77:00:e0:47:0e:7f:b7:da:0d:82:1f:
                    97:c9:7c:c8:a6:4f:2e:d7:c0:cf:8a:f2:46:e7:62:
                    42:7d:7d:a0:66:ec:42:b6:ab:74:ad:c5:0b:6a:8f:
                    6d:ec:1c:19:19:38:12:d7:42:60:47:68:c6:8a:ac:
                    90:ca:e5:dd:bc:10:48:0c:59:00:18:e2:6f:b5:27:
                    cf:76:26:a0:b7:63:2f:e8:77:5a:d0:be:9a:03:22:
                    3d:c6:e0:01:cf:78:80:ae:50:d0:44:fc:4b:2a:e5:
                    ee:fd:1d:80:0b:f3:39:7d:9a:2f:c7:5d:b0:56:08:
                    c1:7f:5d:09:31:eb:b2:d1:1e:59:a2:07:10:e2:c3:
                    ef:f7:23:a1:cc:27:16:14:25:bb:ad:a2:c9:97:cd:
                    03:89:98:d8:8c:0e:41:7f:08:71:29:97:7b:d9:ca:
                    eb:09:1d:15:f4:6f:ad:37:c2:96:f2:76:bf:57:d3:
                    f6:f3
                Exponent: 65537 (0x10001)
        X509v3 extensions:
            X509v3 Basic Constraints: 
                CA:FALSE
            X509v3 Subject Key Identifier: 
                94:5A:BE:54:DF:53:65:56:55:37:A8:0C:21:B1:6E:8B:D8:BC:32:6F
            X509v3 Authority Key Identifier: 
                keyid:50:33:E6:BF:4D:B3:66:AA:26:97:06:9B:DB:57:24:DF:C1:49:66:E3

    Signature Algorithm: sha1WithRSAEncryption
        29:3f:80:f8:52:6e:e9:ef:9e:6b:ee:18:f5:91:46:d6:d9:b9:
        c7:39:e8:be:27:f7:c4:b8:9b:85:6a:46:9f:7e:53:a5:09:0c:
        dd:fa:ca:c3:1d:4f:98:8c:f1:e3:56:b8:06:c0:31:e7:28:4d:
        27:46:90:80:b5:4e:84:14:15:13:bf:be:e7:9f:80:52:a8:76:
        de:fd:a2:5c:f9:37:b8:8b:61:1d:3d:5b:e8:19:b0:59:68:5f:
        86:cf:fc:47:c7:e3:ad:4e:57:b0:2f:72:78:37:cd:f3:86:5a:
        a9:be:28:33:ee:c5:0c:1a:04:c6:78:06:ae:72:56:e2:92:c5:
        10:64:56:6e:6a:11:d8:87:31:2d:42:69:28:a0:36:b5:f2:2d:
        5d:ac:3a:9f:d9:7a:ed:57:65:1c:b9:2d:d4:af:79:fd:7b:f1:
        7a:ff:9c:39:21:88:95:5a:11:8f:21:35:26:cb:d7:71:92:75:
        37:54:8f:23:78:1f:d4:8f:d0:d1:a6:ed:f0:17:33:ac:80:0c:
        8d:6a:45:d0:0c:51:4e:b3:ab:99:3c:3b:c0:28:c1:57:0c:c4:
        ad:36:da:11:43:a9:50:c1:03:e0:27:37:50:8d:76:4a:fe:a4:
        51:28:a8:5f:de:f3:23:db:a7:46:65:95:98:77:8b:05:40:65:
        92:bf:a9:75:c0:b3:93:6d:f9:c2:50:0c:4e:3c:cc:cd:78:98:
        17:8b:ea:0d:dd:9c:39:c4:a8:e3:31:0c:77:6f:94:3b:3d:00:
        61:33:fa:a0:22:e0:ed:44:56:f9:1a:72:3b:d9:b2:06:ce:dc:
        ac:81:8e:09:90:13:d7:09:df:58:a8:c8:fe:38:0b:4f:7d:01:
        a8:99:21:50:cc:0d:d2:ec:99:d4:85:c9:43:08:82:c7:44:69:
        50:a6:99:e8:e9:91:4c:d5:2b:e9:f0:ca:99:d5:89:3f:16:87:
        32:87:d7:56:23:05:c7:7b:63:70:3f:44:ea:c6:b3:f7:f8:b9:
        7a:51:c5:60:b1:ec:5e:f8:7e:24:a2:4a:a4:19:d9:fa:b7:33:
        60:a7:d7:5a:f6:84:29:99:62:bf:65:24:eb:d5:6f:fd:67:a0:
        92:b0:77:5e:8f:85:39:e3:e2:bb:a8:fe:7e:50:68:96:c8:95:
        2a:60:8b:9a:8c:0a:e8:c0:60:2f:8b:5c:2b:72:54:7d:52:ad:
        af:6a:ad:e5:05:be:61:11:c9:ad:c8:cc:09:0a:e5:97:c7:a5:
        b3:a5:95:65:99:45:c1:06:4f:ef:fa:9c:3e:c3:ff:e4:b1:3f:
        b5:60:51:f2:f3:c0:8d:02:68:86:ee:fb:5f:4b:38:73:12:87:
        c8:bc:57:2e:ab:5c:8b:bd
-----BEGIN CERTIFICATE-----
MIIE7DCCAtSgAwIBAgIBFzANBgkqhkiG9w0BAQUFADCBqTELMAkGA1UEBhMCREUx
DzANBgNVBAgTBkJlcmxpbjEPMA0GA1UEBxMGQmVybGluMRQwEgYDVQQKEwtFeGFt
cGxlIENvbTETMBEGA1UECxMKT3BlcmF0aW9uczEmMCQGA1UEAxMdQ2VydGlmaWNh
dGUgU2lnbmluZyBBdXRob3JpdHkxJTAjBgkqhkiG9w0BCQEWFmhvc3RtYXN0ZXJA
ZXhhbXBsZS5jb20wHhcNMTIwOTIyMTMxMTM4WhcNMTMwOTIyMTMxMTM4WjB6MQsw
CQYDVQQGEwJERTEPMA0GA1UECBMGQmVybGluMQ8wDQYDVQQHEwZCZXJsaW4xFDAS
BgNVBAoTC0V4YW1wbGUgQ29tMRMwEQYDVQQLEwpPcGVyYXRpb25zMR4wHAYDVQQD
ExVzdGFnaW5nLmthbmJhbmVyby5uZXQwggEiMA0GCSqGSIb3DQEBAQUAA4IBDwAw
ggEKAoIBAQDDPaaVpV+WjEB5gRDuUopAKgqLubyMRj8VmfeNY5WfVuHdP/YRaxah
tJ13CPM4v8rzy9JQDCs2aOkhXbQ4RZhIMmaukoqeq0GPk4UJC513AOBHDn+32g2C
H5fJfMimTy7XwM+K8kbnYkJ9faBm7EK2q3StxQtqj23sHBkZOBLXQmBHaMaKrJDK
5d28EEgMWQAY4m+1J892JqC3Yy/od1rQvpoDIj3G4AHPeICuUNBE/Esq5e79HYAL
8zl9mi/HXbBWCMF/XQkx67LRHlmiBxDiw+/3I6HMJxYUJbutosmXzQOJmNiMDkF/
CHEpl3vZyusJHRX0b603wpbydr9X0/bzAgMBAAGjTTBLMAkGA1UdEwQCMAAwHQYD
VR0OBBYEFJRavlTfU2VWVTeoDCGxbovYvDJvMB8GA1UdIwQYMBaAFFAz5r9Ns2aq
JpcGm9tXJN/BSWbjMA0GCSqGSIb3DQEBBQUAA4ICAQApP4D4Um7p755r7hj1kUbW
2bnHOei+J/fEuJuFakafflOlCQzd+srDHU+YjPHjVrgGwDHnKE0nRpCAtU6EFBUT
v77nn4BSqHbe/aJc+Te4i2EdPVvoGbBZaF+Gz/xHx+OtTlewL3J4N83zhlqpvigz
7sUMGgTGeAauclbiksUQZFZuahHYhzEtQmkooDa18i1drDqf2XrtV2UcuS3Ur3n9
e/F6/5w5IYiVWhGPITUmy9dxknU3VI8jeB/Uj9DRpu3wFzOsgAyNakXQDFFOs6uZ
PDvAKMFXDMStNtoRQ6lQwQPgJzdQjXZK/qRRKKhf3vMj26dGZZWYd4sFQGWSv6l1
wLOTbfnCUAxOPMzNeJgXi+oN3Zw5xKjjMQx3b5Q7PQBhM/qgIuDtRFb5GnI72bIG
ztysgY4JkBPXCd9YqMj+OAtPfQGomSFQzA3S7JnUhclDCILHRGlQppno6ZFM1Svp
8MqZ1Yk/Focyh9dWIwXHe2NwP0TqxrP3+Ll6UcVgsexe+H4kokqkGdn6tzNgp9da
9oQpmWK/ZSTr1W/9Z6CSsHdej4U54+K7qP5+UGiWyJUqYIuajArowGAvi1wrclR9
Uq2vaq3lBb5hEcmtyMwJCuWXx6WzpZVlmUXBBk/v+pw+w//ksT+1YFHy88CNAmiG
7vtfSzhzEofIvFcuq1yLvQ==
-----END CERTIFICATE-----
