Certificate:
    Data:
        Version: 3 (0x2)
        Serial Number: 31 (0x1f)
    Signature Algorithm: sha1WithRSAEncryption
        Issuer: C=DE, ST=Berlin, L=Berlin, O=Example Com, OU=Operations, CN=Certificate Signing Authority/emailAddress=hostmaster@example.com
        Validity
            Not Before: Mar  5 10:34:05 2013 GMT
            Not After : Mar  5 10:34:05 2014 GMT
        Subject: C=DE, ST=Berlin, L=Berlin, O=Example Com, OU=Operations, CN=web1.schilder-versand.com
        Subject Public Key Info:
            Public Key Algorithm: rsaEncryption
                Public-Key: (2048 bit)
                Modulus:
                    00:b6:29:9b:be:81:cf:64:0c:9c:ac:26:c0:d9:51:
                    75:52:5a:4a:5e:ad:6c:12:40:68:a1:18:0a:c6:cd:
                    49:8c:07:b5:14:3d:d5:cc:e7:e2:8e:a9:13:b4:42:
                    4d:a8:8b:4a:07:aa:cd:10:67:45:8b:9a:d7:38:b3:
                    b5:ba:f9:00:18:f6:11:6b:cf:75:1c:77:61:05:3f:
                    1c:53:84:49:e8:9d:ce:77:35:83:39:98:22:9d:18:
                    c0:44:ab:43:61:38:73:27:24:5d:88:43:b2:4d:af:
                    23:5e:77:6b:db:5b:fe:38:c5:6d:a5:93:7e:d1:ff:
                    8f:53:96:ae:c5:82:8c:93:26:3f:b3:b1:10:ae:57:
                    5e:eb:51:81:61:9d:26:7d:cc:7c:49:35:29:d0:9e:
                    1d:2f:5c:66:37:43:38:b2:06:b3:3c:15:db:40:7b:
                    c9:fe:48:61:ce:f7:3f:b3:79:d0:a9:74:38:55:99:
                    a2:dd:19:38:cd:e5:c3:5a:bb:af:a7:b7:6b:76:f0:
                    ec:99:08:3b:78:7c:e9:37:46:a9:6b:48:c2:ad:f0:
                    55:d5:a7:51:a8:5f:96:7c:e6:61:af:43:eb:29:e8:
                    a0:2c:14:55:2e:b9:48:c5:ab:48:11:d0:17:70:c4:
                    2d:e7:df:f7:c1:60:43:fa:5c:36:3b:72:be:d5:37:
                    62:5f
                Exponent: 65537 (0x10001)
        X509v3 extensions:
            X509v3 Basic Constraints: 
                CA:FALSE
            X509v3 Subject Key Identifier: 
                1E:C4:34:A1:08:29:0C:BB:45:E7:7A:0D:DA:30:33:C7:B0:47:19:04
            X509v3 Authority Key Identifier: 
                keyid:50:33:E6:BF:4D:B3:66:AA:26:97:06:9B:DB:57:24:DF:C1:49:66:E3

    Signature Algorithm: sha1WithRSAEncryption
         4e:2c:50:78:df:36:73:9c:d7:ce:65:c6:5e:c7:f9:14:9e:13:
         00:ab:e1:b1:48:4d:bd:87:ca:ce:eb:ae:ba:ac:eb:16:97:08:
         f7:18:8e:3a:74:e3:69:86:8f:4b:3f:5a:0d:8b:8f:33:00:9c:
         41:d0:5a:3d:62:ef:03:71:00:53:2a:66:b8:b1:89:51:e1:75:
         db:19:3e:ba:d4:6c:bb:ee:de:bd:65:7c:df:54:2f:f2:e0:6c:
         34:a0:e6:b4:8c:25:ab:04:26:a1:63:98:98:f8:3d:62:dc:88:
         90:62:e8:76:58:60:30:bf:1f:51:e1:9f:b6:e8:34:37:bb:1f:
         e5:af:87:63:44:2a:9e:77:a0:ab:b9:42:9e:5c:fe:84:ef:cf:
         dc:9b:e8:52:49:7f:1f:f8:af:55:e8:7c:d9:96:26:23:4a:4a:
         53:b5:f1:8f:e7:b2:9d:37:e8:9b:81:f6:fb:1c:f2:19:ab:2f:
         10:82:9a:66:06:85:07:ce:bb:27:a1:32:78:44:b7:a4:ff:a6:
         6c:26:43:af:4d:c1:bf:ab:5e:a0:61:cd:ee:76:b8:d0:7c:b4:
         d9:95:45:1f:50:64:8a:4c:d4:8b:e5:0d:ca:a6:a5:7a:a0:0b:
         86:b3:2b:89:85:56:dc:d5:ff:95:da:0c:3e:ce:b6:2a:ad:90:
         ed:b7:2f:ec:00:a2:b1:ab:15:a2:58:5c:56:e1:55:f6:98:0a:
         e0:66:bd:2e:4c:e5:b4:80:5e:60:33:1f:72:6f:06:a1:a7:d8:
         74:90:d9:ed:a2:d2:b6:c9:85:72:ee:0b:22:fe:c9:b8:ff:55:
         b3:e9:59:c1:c1:b3:e0:74:ca:01:80:f4:07:bf:68:02:93:3d:
         e7:75:5b:70:3e:46:b3:fd:dc:12:1f:66:fb:39:9a:09:0e:b2:
         44:90:e4:19:1e:ad:69:2d:63:96:e2:79:da:2e:ec:81:d0:64:
         c8:e3:c3:8a:1f:50:41:bd:82:42:42:eb:b2:08:57:44:31:eb:
         8f:fd:0f:86:f4:a2:23:e1:0b:27:f9:ce:10:32:dd:39:1b:83:
         8f:e8:fe:35:4d:ad:85:a2:e0:95:9e:55:f0:33:8b:21:90:f4:
         f8:64:82:d6:57:25:98:db:d5:d1:31:a4:46:f1:5b:96:f6:2f:
         02:0c:52:6a:82:10:ce:e6:46:d2:65:53:b7:a9:f9:28:50:ff:
         f8:dc:ef:13:6c:cb:d1:06:ff:ef:42:3f:92:9e:d6:72:fa:a0:
         40:79:14:8f:2c:b9:b3:65:6b:0f:c5:56:80:fe:9d:70:55:3e:
         02:1f:ac:06:a8:c3:31:1f:29:84:5f:a8:51:40:70:e7:1c:11:
         30:4c:fc:93:10:8c:4e:3f
-----BEGIN CERTIFICATE-----
MIIE8DCCAtigAwIBAgIBHzANBgkqhkiG9w0BAQUFADCBqTELMAkGA1UEBhMCREUx
DzANBgNVBAgTBkJlcmxpbjEPMA0GA1UEBxMGQmVybGluMRQwEgYDVQQKEwtFeGFt
cGxlIENvbTETMBEGA1UECxMKT3BlcmF0aW9uczEmMCQGA1UEAxMdQ2VydGlmaWNh
dGUgU2lnbmluZyBBdXRob3JpdHkxJTAjBgkqhkiG9w0BCQEWFmhvc3RtYXN0ZXJA
ZXhhbXBsZS5jb20wHhcNMTMwMzA1MTAzNDA1WhcNMTQwMzA1MTAzNDA1WjB+MQsw
CQYDVQQGEwJERTEPMA0GA1UECBMGQmVybGluMQ8wDQYDVQQHEwZCZXJsaW4xFDAS
BgNVBAoTC0V4YW1wbGUgQ29tMRMwEQYDVQQLEwpPcGVyYXRpb25zMSIwIAYDVQQD
Exl3ZWIxLnNjaGlsZGVyLXZlcnNhbmQuY29tMIIBIjANBgkqhkiG9w0BAQEFAAOC
AQ8AMIIBCgKCAQEAtimbvoHPZAycrCbA2VF1UlpKXq1sEkBooRgKxs1JjAe1FD3V
zOfijqkTtEJNqItKB6rNEGdFi5rXOLO1uvkAGPYRa891HHdhBT8cU4RJ6J3OdzWD
OZginRjARKtDYThzJyRdiEOyTa8jXndr21v+OMVtpZN+0f+PU5auxYKMkyY/s7EQ
rlde61GBYZ0mfcx8STUp0J4dL1xmN0M4sgazPBXbQHvJ/khhzvc/s3nQqXQ4VZmi
3Rk4zeXDWruvp7drdvDsmQg7eHzpN0apa0jCrfBV1adRqF+WfOZhr0PrKeigLBRV
LrlIxatIEdAXcMQt59/3wWBD+lw2O3K+1TdiXwIDAQABo00wSzAJBgNVHRMEAjAA
MB0GA1UdDgQWBBQexDShCCkMu0Xneg3aMDPHsEcZBDAfBgNVHSMEGDAWgBRQM+a/
TbNmqiaXBpvbVyTfwUlm4zANBgkqhkiG9w0BAQUFAAOCAgEATixQeN82c5zXzmXG
Xsf5FJ4TAKvhsUhNvYfKzuuuuqzrFpcI9xiOOnTjaYaPSz9aDYuPMwCcQdBaPWLv
A3EAUypmuLGJUeF12xk+utRsu+7evWV831Qv8uBsNKDmtIwlqwQmoWOYmPg9YtyI
kGLodlhgML8fUeGftug0N7sf5a+HY0Qqnnegq7lCnlz+hO/P3JvoUkl/H/ivVeh8
2ZYmI0pKU7Xxj+eynTfom4H2+xzyGasvEIKaZgaFB867J6EyeES3pP+mbCZDr03B
v6teoGHN7na40Hy02ZVFH1BkikzUi+UNyqaleqALhrMriYVW3NX/ldoMPs62Kq2Q
7bcv7ACisasVolhcVuFV9pgK4Ga9LkzltIBeYDMfcm8GoafYdJDZ7aLStsmFcu4L
Iv7JuP9Vs+lZwcGz4HTKAYD0B79oApM953VbcD5Gs/3cEh9m+zmaCQ6yRJDkGR6t
aS1jluJ52i7sgdBkyOPDih9QQb2CQkLrsghXRDHrj/0PhvSiI+ELJ/nOEDLdORuD
j+j+NU2thaLglZ5V8DOLIZD0+GSC1lclmNvV0TGkRvFblvYvAgxSaoIQzuZG0mVT
t6n5KFD/+NzvE2zL0Qb/70I/kp7WcvqgQHkUjyy5s2VrD8VWgP6dcFU+Ah+sBqjD
MR8phF+oUUBw5xwRMEz8kxCMTj8=
-----END CERTIFICATE-----
