Certificate:
    Data:
        Version: 3 (0x2)
        Serial Number: 19 (0x13)
    Signature Algorithm: sha1WithRSAEncryption
        Issuer: C=DE, ST=Berlin, L=Berlin, O=ZenOps, OU=Operations, CN=Certificate Signing Authority/emailAddress=hostmaster@zenops.de
        Validity
            Not Before: Jul  9 19:18:36 2013 GMT
            Not After : Jul  9 19:18:36 2014 GMT
        Subject: C=DE, ST=Berlin, L=Berlin, O=ZenOps, OU=Operations, CN=www.zenops.net
        Subject Public Key Info:
            Public Key Algorithm: rsaEncryption
                Public-Key: (2048 bit)
                Modulus:
                    00:d3:8f:e9:97:c6:95:db:00:81:39:17:da:50:97:
                    18:02:6c:de:de:29:65:24:0f:96:8d:95:a8:0a:8c:
                    a5:98:b1:90:f8:74:95:ad:9f:ae:ca:3b:85:5d:ab:
                    9a:64:e9:0e:9e:e5:05:25:1f:35:24:33:60:7a:e8:
                    ed:d4:0a:63:15:a0:18:3a:6b:f6:cf:a6:f5:3f:97:
                    3c:f6:f1:b3:c5:f9:d3:54:e3:5c:55:5f:00:77:48:
                    d9:8c:28:32:27:24:08:61:5c:00:0e:55:46:94:9e:
                    c3:3f:7c:c7:d4:18:2b:1b:9a:4b:9d:77:1a:10:47:
                    b8:b8:e6:06:c7:32:ef:03:64:0f:49:6c:76:c7:08:
                    a6:49:4e:85:a5:f3:35:71:da:f1:8a:5f:f9:9d:7b:
                    a1:d6:ea:8c:8b:92:02:42:e5:ec:76:e0:28:03:86:
                    5e:c5:00:4f:9d:fb:3c:22:0e:62:5e:ad:16:39:b9:
                    05:85:5c:8a:90:af:53:7c:60:05:b3:eb:4c:08:b4:
                    77:4a:d6:65:c0:ff:03:0b:5a:5a:3d:bb:4b:10:9e:
                    dd:f7:57:65:99:d0:e7:dc:d4:25:dc:d0:58:44:07:
                    48:69:11:28:d1:dc:d4:28:5a:d4:0a:d0:1e:2f:6c:
                    b0:dc:08:e5:18:65:fc:be:73:31:75:1d:c3:0b:c4:
                    cf:51
                Exponent: 65537 (0x10001)
        X509v3 extensions:
            X509v3 Basic Constraints: 
                CA:FALSE
            X509v3 Subject Key Identifier: 
                F8:A3:48:8B:F7:12:F5:F9:2A:9E:58:96:E2:13:B6:5C:55:C6:FD:23
            X509v3 Authority Key Identifier: 
                keyid:4F:4D:64:16:D3:0B:30:0C:96:E3:86:E8:D2:0F:68:20:CF:D0:DC:CD

    Signature Algorithm: sha1WithRSAEncryption
         4b:c9:d5:a7:83:b4:c3:c1:4d:d7:67:f0:9c:82:66:e0:3b:56:
         49:7a:56:d8:98:8f:a6:ed:31:49:73:47:b3:b0:79:bf:3a:db:
         2c:0a:a8:48:12:51:0d:23:04:69:3b:7d:64:e4:77:3f:a8:ac:
         a0:18:fd:2a:c5:e7:00:58:1b:78:9d:33:62:58:12:74:83:af:
         97:0e:cf:f0:14:cd:ad:7f:2b:ff:d1:35:a1:d6:b9:db:5b:6f:
         a5:2f:30:c7:f9:c8:90:58:5b:57:e9:2a:ee:ef:5b:bc:81:f9:
         38:6c:6a:48:18:53:48:56:22:84:55:dd:98:6f:87:9e:5f:c0:
         4c:1c:84:83:54:63:86:70:c4:87:53:e5:1f:65:4a:d0:73:98:
         31:38:48:e7:d5:7e:7a:28:f9:9f:1b:52:08:a7:11:8b:ad:8c:
         f3:82:18:7a:50:14:c1:2a:1f:a0:70:2f:55:31:8c:9a:e9:2b:
         4e:de:7e:6f:98:dd:2b:3c:75:b2:aa:09:ca:a8:16:a2:03:ff:
         12:d9:29:a1:8d:51:d6:72:af:df:b9:7a:38:91:5d:fd:63:f4:
         93:2b:62:d2:ca:5a:63:60:9c:35:92:30:f7:4f:7e:37:dc:e4:
         47:6d:2d:ed:98:6c:62:92:01:8f:6b:fe:b5:40:c9:3a:39:78:
         90:36:e4:71:38:ba:46:c7:97:ae:c6:08:fa:a0:11:7d:1f:0f:
         33:6e:19:35:90:7c:d9:b6:7a:16:dc:54:a6:42:44:0c:af:a9:
         21:b8:ed:6b:07:47:c8:75:a3:6a:bf:e6:eb:6b:8d:08:91:14:
         37:8b:fd:ba:df:3c:f0:4b:c1:15:2a:a8:37:2c:c5:58:ae:ab:
         e5:d0:ea:23:18:b8:8d:e3:e0:cb:ad:30:6d:4f:d9:e1:d8:89:
         55:52:a1:5d:3b:df:2d:44:7c:0e:2d:fc:3b:c9:f8:c4:c8:ed:
         36:ce:e9:29:07:58:5e:e1:28:aa:c2:44:2e:37:6f:36:6a:e9:
         09:36:4b:ff:c2:21:5b:12:e3:dc:f1:73:8b:76:0e:16:27:20:
         eb:8e:08:0c:d2:70:c4:fb:9e:dc:88:63:b9:d6:d5:3f:04:cd:
         5b:2a:10:00:5f:aa:d1:2a:7a:b7:4e:1b:6c:85:ed:b0:2c:5a:
         e7:56:9a:12:6f:01:40:fe:24:55:1d:b8:ef:a6:ca:29:f9:3a:
         6c:a3:5c:3c:c0:f8:7f:f8:91:0c:e2:ce:7f:17:95:f4:cd:dc:
         05:ec:fb:bf:cc:2d:3f:be:ed:67:12:bc:ce:0a:4c:5f:ce:33:
         32:fb:83:d5:37:46:85:6a:18:e0:3c:30:74:e1:f6:e8:de:1a:
         e5:76:59:81:3b:ec:0f:df
-----BEGIN CERTIFICATE-----
MIIE2TCCAsGgAwIBAgIBEzANBgkqhkiG9w0BAQUFADCBojELMAkGA1UEBhMCREUx
DzANBgNVBAgTBkJlcmxpbjEPMA0GA1UEBxMGQmVybGluMQ8wDQYDVQQKEwZaZW5P
cHMxEzARBgNVBAsTCk9wZXJhdGlvbnMxJjAkBgNVBAMTHUNlcnRpZmljYXRlIFNp
Z25pbmcgQXV0aG9yaXR5MSMwIQYJKoZIhvcNAQkBFhRob3N0bWFzdGVyQHplbm9w
cy5kZTAeFw0xMzA3MDkxOTE4MzZaFw0xNDA3MDkxOTE4MzZaMG4xCzAJBgNVBAYT
AkRFMQ8wDQYDVQQIEwZCZXJsaW4xDzANBgNVBAcTBkJlcmxpbjEPMA0GA1UEChMG
WmVuT3BzMRMwEQYDVQQLEwpPcGVyYXRpb25zMRcwFQYDVQQDEw53d3cuemVub3Bz
Lm5ldDCCASIwDQYJKoZIhvcNAQEBBQADggEPADCCAQoCggEBANOP6ZfGldsAgTkX
2lCXGAJs3t4pZSQPlo2VqAqMpZixkPh0la2frso7hV2rmmTpDp7lBSUfNSQzYHro
7dQKYxWgGDpr9s+m9T+XPPbxs8X501TjXFVfAHdI2YwoMickCGFcAA5VRpSewz98
x9QYKxuaS513GhBHuLjmBscy7wNkD0lsdscIpklOhaXzNXHa8Ypf+Z17odbqjIuS
AkLl7HbgKAOGXsUAT537PCIOYl6tFjm5BYVcipCvU3xgBbPrTAi0d0rWZcD/Awta
Wj27SxCe3fdXZZnQ59zUJdzQWEQHSGkRKNHc1Cha1ArQHi9ssNwI5Rhl/L5zMXUd
wwvEz1ECAwEAAaNNMEswCQYDVR0TBAIwADAdBgNVHQ4EFgQU+KNIi/cS9fkqnliW
4hO2XFXG/SMwHwYDVR0jBBgwFoAUT01kFtMLMAyW44bo0g9oIM/Q3M0wDQYJKoZI
hvcNAQEFBQADggIBAEvJ1aeDtMPBTddn8JyCZuA7Vkl6VtiYj6btMUlzR7Oweb86
2ywKqEgSUQ0jBGk7fWTkdz+orKAY/SrF5wBYG3idM2JYEnSDr5cOz/AUza1/K//R
NaHWudtbb6UvMMf5yJBYW1fpKu7vW7yB+ThsakgYU0hWIoRV3Zhvh55fwEwchINU
Y4ZwxIdT5R9lStBzmDE4SOfVfnoo+Z8bUginEYutjPOCGHpQFMEqH6BwL1UxjJrp
K07efm+Y3Ss8dbKqCcqoFqID/xLZKaGNUdZyr9+5ejiRXf1j9JMrYtLKWmNgnDWS
MPdPfjfc5EdtLe2YbGKSAY9r/rVAyTo5eJA25HE4ukbHl67GCPqgEX0fDzNuGTWQ
fNm2ehbcVKZCRAyvqSG47WsHR8h1o2q/5utrjQiRFDeL/brfPPBLwRUqqDcsxViu
q+XQ6iMYuI3j4MutMG1P2eHYiVVSoV073y1EfA4t/DvJ+MTI7TbO6SkHWF7hKKrC
RC43bzZq6Qk2S//CIVsS49zxc4t2DhYnIOuOCAzScMT7ntyIY7nW1T8EzVsqEABf
qtEqerdOG2yF7bAsWudWmhJvAUD+JFUduO+myin5OmyjXDzA+H/4kQzizn8XlfTN
3AXs+7/MLT++7WcSvM4KTF/OMzL7g9U3RoVqGOA8MHTh9ujeGuV2WYE77A/f
-----END CERTIFICATE-----
