Certificate:
    Data:
        Version: 3 (0x2)
        Serial Number: 10 (0xa)
        Signature Algorithm: sha1WithRSAEncryption
        Issuer: C=DE, ST=Berlin, L=Berlin, O=Example Com, OU=Operations, CN=Certificate Signing Authority/emailAddress=hostmaster@example.com
        Validity
            Not Before: Mar 15 12:24:39 2012 GMT
            Not After : Mar 15 12:24:39 2013 GMT
        Subject: C=DE, ST=Berlin, L=Berlin, O=Example Com, OU=Operations, CN=zeus.xnull.de
        Subject Public Key Info:
            Public Key Algorithm: rsaEncryption
                Public-Key: (2048 bit)
                Modulus:
                    00:b9:a9:81:10:b5:6f:75:32:0e:5a:17:78:73:06:
                    a6:6e:41:42:d7:50:ce:a2:ff:ce:5e:fd:91:e0:20:
                    72:4e:38:7f:1f:f9:e3:05:98:5d:08:42:24:f5:97:
                    e2:85:43:94:ee:ef:11:4f:0e:8b:3d:c2:38:82:e8:
                    c8:63:18:a8:9d:78:00:d4:df:b0:3d:b3:ac:2b:54:
                    b5:4d:77:d9:7f:d8:05:62:cf:fa:81:d9:99:74:57:
                    a2:ce:35:65:f8:ed:a9:13:d6:19:c6:00:bc:7b:b3:
                    92:9d:92:c9:a7:d6:55:31:82:b7:0c:78:b3:76:2f:
                    01:7a:a5:4d:07:65:69:dc:64:e3:8f:87:57:f1:02:
                    bc:31:9a:5f:63:18:65:d1:03:4b:76:2d:45:c2:0c:
                    b0:1b:d4:8c:cb:d2:5c:00:00:fa:cd:ce:46:74:b4:
                    88:f0:fb:4a:b8:c6:5f:c6:3b:cc:17:e4:aa:6d:83:
                    c4:22:a7:66:5e:6e:fb:18:40:eb:01:41:59:3a:ab:
                    73:a2:e2:72:fc:c4:cb:c3:7b:dd:f5:12:16:f2:c4:
                    36:e3:d2:17:bc:f6:4a:11:58:b4:70:b6:00:2a:1d:
                    c8:e8:00:4f:35:6e:33:bd:6a:ef:39:ad:22:83:65:
                    8c:4c:47:98:0d:e0:f2:3d:de:ee:60:60:71:45:aa:
                    d5:c1
                Exponent: 65537 (0x10001)
        X509v3 extensions:
            X509v3 Basic Constraints: 
                CA:FALSE
            X509v3 Subject Key Identifier: 
                8C:CE:95:4F:38:AB:17:8F:15:0B:88:20:FF:1D:9D:8A:37:0A:C0:91
            X509v3 Authority Key Identifier: 
                keyid:50:33:E6:BF:4D:B3:66:AA:26:97:06:9B:DB:57:24:DF:C1:49:66:E3

    Signature Algorithm: sha1WithRSAEncryption
        41:e0:e2:49:3e:c8:e2:45:31:81:87:a8:1b:b9:ee:fe:38:9d:
        bf:95:53:54:8e:d6:c1:62:d9:67:0b:da:55:74:0d:35:20:cd:
        b8:7a:4f:19:12:60:63:a2:3d:17:ec:21:f1:23:2c:5a:23:fb:
        2a:75:a0:8b:1b:e4:10:cd:45:b4:c3:0a:a2:f8:ea:d9:6e:7f:
        4e:54:ad:cc:84:fa:09:b3:cd:82:bf:f7:8e:b3:8e:cf:94:4e:
        0b:26:08:8a:a3:4c:8b:17:08:28:87:12:75:71:3b:52:0b:8a:
        4f:f4:b4:35:3d:80:90:d2:81:67:cb:95:ba:0d:bc:06:9b:f2:
        d6:f5:51:bf:6a:aa:ce:4f:96:9f:57:bc:1d:cd:b2:1d:f4:dc:
        5c:03:72:e0:3a:d3:92:eb:a0:6a:a3:36:c5:26:bd:b9:b6:ce:
        41:75:5c:96:90:ee:e6:6f:ca:b9:07:45:ef:ec:a2:15:ca:f0:
        71:5e:03:b1:2b:6f:d4:ad:b1:69:f4:5c:0f:5d:6d:d0:85:03:
        50:84:76:c2:d8:41:f2:d9:c1:95:ff:3a:1a:c9:ca:8e:c2:a4:
        76:9a:fc:85:21:d0:5b:bb:51:19:63:11:18:a7:fd:2a:22:4a:
        8a:44:ca:a7:46:a5:29:46:8e:5e:f0:1f:f1:b4:78:12:00:46:
        0e:9e:93:1d:fa:9c:91:b4:33:ea:57:af:1c:b3:bc:b5:3f:91:
        dd:27:ed:35:39:6f:21:6b:71:6f:c3:38:73:6e:2e:04:0c:fb:
        d0:69:b6:52:13:4d:ac:05:e8:48:2d:87:42:99:25:73:70:3d:
        c6:b3:9d:bc:b8:3d:fd:f3:44:b9:00:1e:0b:a1:c9:19:c4:77:
        60:e3:79:cd:df:1f:d8:f6:19:ab:36:7f:d7:30:e3:60:3f:53:
        38:69:e6:1f:00:fa:1b:77:65:75:b2:02:12:6a:1d:89:7f:91:
        4d:78:37:8e:97:95:99:8c:9c:a1:91:80:6d:c0:af:ed:a9:c7:
        60:1a:a6:69:c0:00:91:a8:a5:c5:e5:15:ef:a9:2b:6a:f9:0c:
        0b:59:41:49:4d:f4:d3:b4:88:87:e3:5e:1f:d2:86:87:f3:3e:
        4a:a4:24:f3:a9:ac:fc:24:26:ed:d7:ae:17:e5:1f:de:19:36:
        a4:d8:d5:ad:d6:c8:ae:b5:f9:a7:1b:6c:d9:30:04:32:08:04:
        1a:d8:03:cd:0f:ab:3e:73:3f:41:2a:2d:aa:31:38:a4:e8:b7:
        21:43:df:f4:2f:d8:22:fc:36:72:7d:fe:c6:70:fd:90:2f:41:
        6f:5b:2b:34:4a:f0:40:a8:67:74:6f:a2:e9:78:60:d5:d9:84:
        74:ab:ab:84:6f:3f:ff:a9
-----BEGIN CERTIFICATE-----
MIIE5DCCAsygAwIBAgIBCjANBgkqhkiG9w0BAQUFADCBqTELMAkGA1UEBhMCREUx
DzANBgNVBAgTBkJlcmxpbjEPMA0GA1UEBxMGQmVybGluMRQwEgYDVQQKEwtFeGFt
cGxlIENvbTETMBEGA1UECxMKT3BlcmF0aW9uczEmMCQGA1UEAxMdQ2VydGlmaWNh
dGUgU2lnbmluZyBBdXRob3JpdHkxJTAjBgkqhkiG9w0BCQEWFmhvc3RtYXN0ZXJA
ZXhhbXBsZS5jb20wHhcNMTIwMzE1MTIyNDM5WhcNMTMwMzE1MTIyNDM5WjByMQsw
CQYDVQQGEwJERTEPMA0GA1UECBMGQmVybGluMQ8wDQYDVQQHEwZCZXJsaW4xFDAS
BgNVBAoTC0V4YW1wbGUgQ29tMRMwEQYDVQQLEwpPcGVyYXRpb25zMRYwFAYDVQQD
Ew16ZXVzLnhudWxsLmRlMIIBIjANBgkqhkiG9w0BAQEFAAOCAQ8AMIIBCgKCAQEA
uamBELVvdTIOWhd4cwambkFC11DOov/OXv2R4CByTjh/H/njBZhdCEIk9ZfihUOU
7u8RTw6LPcI4gujIYxionXgA1N+wPbOsK1S1TXfZf9gFYs/6gdmZdFeizjVl+O2p
E9YZxgC8e7OSnZLJp9ZVMYK3DHizdi8BeqVNB2Vp3GTjj4dX8QK8MZpfYxhl0QNL
di1FwgywG9SMy9JcAAD6zc5GdLSI8PtKuMZfxjvMF+SqbYPEIqdmXm77GEDrAUFZ
OqtzouJy/MTLw3vd9RIW8sQ249IXvPZKEVi0cLYAKh3I6ABPNW4zvWrvOa0ig2WM
TEeYDeDyPd7uYGBxRarVwQIDAQABo00wSzAJBgNVHRMEAjAAMB0GA1UdDgQWBBSM
zpVPOKsXjxULiCD/HZ2KNwrAkTAfBgNVHSMEGDAWgBRQM+a/TbNmqiaXBpvbVyTf
wUlm4zANBgkqhkiG9w0BAQUFAAOCAgEAQeDiST7I4kUxgYeoG7nu/jidv5VTVI7W
wWLZZwvaVXQNNSDNuHpPGRJgY6I9F+wh8SMsWiP7KnWgixvkEM1FtMMKovjq2W5/
TlStzIT6CbPNgr/3jrOOz5ROCyYIiqNMixcIKIcSdXE7UguKT/S0NT2AkNKBZ8uV
ug28Bpvy1vVRv2qqzk+Wn1e8Hc2yHfTcXANy4DrTkuugaqM2xSa9ubbOQXVclpDu
5m/KuQdF7+yiFcrwcV4DsStv1K2xafRcD11t0IUDUIR2wthB8tnBlf86GsnKjsKk
dpr8hSHQW7tRGWMRGKf9KiJKikTKp0alKUaOXvAf8bR4EgBGDp6THfqckbQz6lev
HLO8tT+R3SftNTlvIWtxb8M4c24uBAz70Gm2UhNNrAXoSC2HQpklc3A9xrOdvLg9
/fNEuQAeC6HJGcR3YON5zd8f2PYZqzZ/1zDjYD9TOGnmHwD6G3dldbICEmodiX+R
TXg3jpeVmYycoZGAbcCv7anHYBqmacAAkailxeUV76kravkMC1lBSU3007SIh+Ne
H9KGh/M+SqQk86ms/CQm7deuF+Uf3hk2pNjVrdbIrrX5pxts2TAEMggEGtgDzQ+r
PnM/QSotqjE4pOi3IUPf9C/YIvw2cn3+xnD9kC9Bb1srNErwQKhndG+i6Xhg1dmE
dKurhG8//6k=
-----END CERTIFICATE-----
