Certificate:
    Data:
        Version: 3 (0x2)
        Serial Number: 1 (0x1)
        Signature Algorithm: sha1WithRSAEncryption
        Issuer: C=DE, ST=Berlin, L=Berlin, O=Example Com, OU=Operations, CN=Certificate Signing Authority/emailAddress=hostmaster@example.com
        Validity
            Not Before: Dec 31 21:16:38 2011 GMT
            Not After : Dec 30 21:16:38 2012 GMT
        Subject: C=DE, ST=Berlin, L=Berlin, O=Example Com, OU=Operations, CN=chef.zenops.net
        Subject Public Key Info:
            Public Key Algorithm: rsaEncryption
                Public-Key: (2048 bit)
                Modulus:
                    00:e1:e8:24:a0:7a:0e:d0:c4:75:74:4e:74:78:78:
                    8b:07:27:37:17:37:1c:20:50:c5:e5:18:e1:71:67:
                    fb:ef:b7:b1:92:69:5b:c4:5a:1f:a0:e1:54:f0:34:
                    64:b5:ad:40:58:7c:f3:29:24:bc:24:34:f5:05:ea:
                    ba:1c:ee:ed:80:28:45:90:77:de:1b:68:db:ec:6f:
                    0f:1b:3f:9a:8d:47:9c:b1:b2:2d:13:06:15:bf:ea:
                    c8:e5:31:90:3c:aa:2e:86:79:7a:e4:bd:60:ab:67:
                    7f:04:ab:c2:7f:b8:fe:21:2c:c8:13:de:7f:a0:07:
                    fd:84:af:10:f5:ae:f6:98:ec:aa:4d:cb:cb:4f:db:
                    24:ad:73:50:d6:b4:d6:fe:47:bf:26:ae:e0:2c:3f:
                    31:73:a0:ba:3a:18:63:de:ac:9c:d0:8d:45:3c:b6:
                    23:f8:6d:a7:ed:68:12:25:20:de:c2:e9:ab:62:4e:
                    37:bf:44:d3:db:04:c2:09:12:97:a7:c3:79:53:b4:
                    79:b7:59:3c:c8:a8:ae:c4:3c:bf:4e:d1:7b:0c:4e:
                    5f:48:22:10:de:2e:66:2b:ee:f1:b7:12:48:de:88:
                    f9:4d:7c:e4:f6:e3:54:54:d6:ee:82:7a:ed:c9:3e:
                    69:65:f3:3e:ce:cf:a5:58:56:0a:08:9b:aa:c7:15:
                    52:d1
                Exponent: 65537 (0x10001)
        X509v3 extensions:
            X509v3 Basic Constraints: 
                CA:FALSE
            X509v3 Subject Key Identifier: 
                B8:8D:6A:E6:63:2C:BD:EF:AC:29:A6:4D:71:86:FD:07:00:46:E4:B0
            X509v3 Authority Key Identifier: 
                keyid:50:33:E6:BF:4D:B3:66:AA:26:97:06:9B:DB:57:24:DF:C1:49:66:E3

    Signature Algorithm: sha1WithRSAEncryption
        08:29:fa:16:0c:9c:3a:1f:b5:00:b0:d2:a8:bb:31:8d:f1:cc:
        84:dd:b9:d3:67:1a:75:85:b9:37:77:4d:bc:a4:e0:aa:df:fa:
        f4:91:6f:9c:d0:51:1e:db:34:0f:12:7c:e8:73:9e:fc:0f:2f:
        d7:3b:cd:f6:e9:99:00:a8:3a:c7:ba:8c:99:c8:1c:bc:d3:97:
        a7:fc:5f:81:34:cb:af:af:3f:32:cc:78:9f:71:63:93:4d:5e:
        0a:12:c3:64:d6:03:b9:87:e3:57:ad:fd:56:2b:93:7a:5a:1e:
        93:8e:f6:8a:5f:cb:38:0b:3d:e3:49:d3:5b:98:6f:7a:40:05:
        63:e8:fc:55:0a:36:e4:28:22:03:7d:17:59:de:ce:e5:22:87:
        b8:06:a5:44:6d:70:b3:91:39:b1:ef:f3:86:c3:e2:07:0f:e2:
        1b:31:e4:c8:e8:96:ce:01:5b:27:b3:54:e7:e3:d7:1c:79:67:
        c1:87:a1:0b:35:4b:0f:32:6c:e0:10:9e:57:53:34:05:7f:aa:
        f8:cd:3f:78:ba:1c:47:95:98:ed:0a:b9:4f:c4:be:7c:a2:16:
        e1:55:7c:d6:52:c5:73:5b:44:95:bc:e4:6c:ce:e8:72:ac:bf:
        2c:c8:b5:be:8c:22:c1:96:d8:d3:98:2b:c9:fa:b9:97:f5:fe:
        4d:2e:89:6e:1d:21:32:73:bd:1d:99:a2:a8:46:79:2b:de:4e:
        32:aa:ae:a5:13:10:dd:7b:73:d3:4d:74:f2:c4:37:45:a0:e4:
        c3:ad:b8:51:35:cb:4a:a7:33:f7:79:6c:a4:15:91:0e:84:b2:
        f0:f4:d1:72:12:1a:8e:31:49:f5:1a:4c:8f:03:5e:6f:63:d0:
        2e:2d:45:75:ee:ab:27:91:bc:f1:4e:ef:85:18:c3:a5:db:5c:
        fa:e7:c6:6e:3d:0d:c5:01:af:5c:4c:14:c8:07:9a:d5:32:ea:
        26:76:87:ea:11:4e:27:4c:79:a6:a9:b7:d2:51:b5:2e:06:76:
        78:22:dc:b5:28:f1:ef:4d:17:c3:1a:f8:fd:9e:61:32:1e:8e:
        2d:eb:cd:bc:77:f4:29:52:7a:1c:36:bf:49:02:4e:9f:83:74:
        2b:1e:8e:a8:4a:f9:a9:fa:0c:fc:4a:6b:53:08:9d:18:cc:1b:
        5e:83:62:e1:8e:86:df:84:e2:3d:53:e8:ee:67:dd:13:b0:76:
        30:aa:e6:7b:3a:c0:b9:a2:33:3a:cb:bf:87:1d:bf:ba:b3:c3:
        77:b6:b2:14:cd:ee:fd:84:8a:6c:5a:b1:ae:f0:6f:2e:74:66:
        17:c7:a9:6c:80:1b:1c:86:cc:2e:7d:27:2e:d5:eb:a4:1a:bb:
        03:ef:72:7d:8c:3d:f4:e9
-----BEGIN CERTIFICATE-----
MIIE5jCCAs6gAwIBAgIBATANBgkqhkiG9w0BAQUFADCBqTELMAkGA1UEBhMCREUx
DzANBgNVBAgTBkJlcmxpbjEPMA0GA1UEBxMGQmVybGluMRQwEgYDVQQKEwtFeGFt
cGxlIENvbTETMBEGA1UECxMKT3BlcmF0aW9uczEmMCQGA1UEAxMdQ2VydGlmaWNh
dGUgU2lnbmluZyBBdXRob3JpdHkxJTAjBgkqhkiG9w0BCQEWFmhvc3RtYXN0ZXJA
ZXhhbXBsZS5jb20wHhcNMTExMjMxMjExNjM4WhcNMTIxMjMwMjExNjM4WjB0MQsw
CQYDVQQGEwJERTEPMA0GA1UECBMGQmVybGluMQ8wDQYDVQQHEwZCZXJsaW4xFDAS
BgNVBAoTC0V4YW1wbGUgQ29tMRMwEQYDVQQLEwpPcGVyYXRpb25zMRgwFgYDVQQD
Ew9jaGVmLnplbm9wcy5uZXQwggEiMA0GCSqGSIb3DQEBAQUAA4IBDwAwggEKAoIB
AQDh6CSgeg7QxHV0TnR4eIsHJzcXNxwgUMXlGOFxZ/vvt7GSaVvEWh+g4VTwNGS1
rUBYfPMpJLwkNPUF6roc7u2AKEWQd94baNvsbw8bP5qNR5yxsi0TBhW/6sjlMZA8
qi6GeXrkvWCrZ38Eq8J/uP4hLMgT3n+gB/2ErxD1rvaY7KpNy8tP2yStc1DWtNb+
R78mruAsPzFzoLo6GGPerJzQjUU8tiP4baftaBIlIN7C6atiTje/RNPbBMIJEpen
w3lTtHm3WTzIqK7EPL9O0XsMTl9IIhDeLmYr7vG3EkjeiPlNfOT241RU1u6Ceu3J
Pmll8z7Oz6VYVgoIm6rHFVLRAgMBAAGjTTBLMAkGA1UdEwQCMAAwHQYDVR0OBBYE
FLiNauZjLL3vrCmmTXGG/QcARuSwMB8GA1UdIwQYMBaAFFAz5r9Ns2aqJpcGm9tX
JN/BSWbjMA0GCSqGSIb3DQEBBQUAA4ICAQAIKfoWDJw6H7UAsNKouzGN8cyE3bnT
Zxp1hbk3d028pOCq3/r0kW+c0FEe2zQPEnzoc578Dy/XO8326ZkAqDrHuoyZyBy8
05en/F+BNMuvrz8yzHifcWOTTV4KEsNk1gO5h+NXrf1WK5N6Wh6TjvaKX8s4Cz3j
SdNbmG96QAVj6PxVCjbkKCIDfRdZ3s7lIoe4BqVEbXCzkTmx7/OGw+IHD+IbMeTI
6JbOAVsns1Tn49cceWfBh6ELNUsPMmzgEJ5XUzQFf6r4zT94uhxHlZjtCrlPxL58
ohbhVXzWUsVzW0SVvORszuhyrL8syLW+jCLBltjTmCvJ+rmX9f5NLoluHSEyc70d
maKoRnkr3k4yqq6lExDde3PTTXTyxDdFoOTDrbhRNctKpzP3eWykFZEOhLLw9NFy
EhqOMUn1GkyPA15vY9AuLUV17qsnkbzxTu+FGMOl21z658ZuPQ3FAa9cTBTIB5rV
MuomdofqEU4nTHmmqbfSUbUuBnZ4Ity1KPHvTRfDGvj9nmEyHo4t6828d/QpUnoc
Nr9JAk6fg3QrHo6oSvmp+gz8SmtTCJ0YzBteg2LhjobfhOI9U+juZ90TsHYwquZ7
OsC5ojM6y7+HHb+6s8N3trIUze79hIpsWrGu8G8udGYXx6lsgBschswufScu1euk
GrsD73J9jD306Q==
-----END CERTIFICATE-----
