Certificate:
    Data:
        Version: 3 (0x2)
        Serial Number: 3 (0x3)
    Signature Algorithm: sha1WithRSAEncryption
        Issuer: C=DE, ST=Berlin, L=Berlin, O=ZenOps, OU=Operations, CN=Certificate Signing Authority/emailAddress=hostmaster@zenops.de
        Validity
            Not Before: Mar  9 09:53:49 2013 GMT
            Not After : Mar  9 09:53:49 2014 GMT
        Subject: C=DE, ST=Berlin, L=Berlin, O=ZenOps, OU=Operations, CN=chariteam.de
        Subject Public Key Info:
            Public Key Algorithm: rsaEncryption
                Public-Key: (2048 bit)
                Modulus:
                    00:ea:7d:f0:2b:19:72:60:f6:4b:14:b7:dd:34:e2:
                    a3:77:34:97:90:79:b2:e0:e0:4c:6f:f6:4a:68:ad:
                    45:30:30:3b:fd:bf:3f:33:44:e8:ac:7d:58:a9:df:
                    76:32:a1:c1:1f:78:65:23:cc:f2:91:eb:dc:08:9e:
                    16:03:7b:42:84:2b:d4:9c:bd:ed:69:fe:40:9d:20:
                    f3:13:e7:07:79:cb:15:b1:73:8e:a4:21:b4:2e:28:
                    79:cb:b3:27:df:db:0d:17:30:a4:f8:0f:b2:51:f5:
                    1d:e2:ed:d4:da:16:b7:5f:d2:81:33:33:c7:39:c6:
                    6e:83:7a:89:ea:95:af:66:b8:59:40:a8:1c:d4:db:
                    be:7e:6e:8e:c1:3b:5d:85:7a:86:b8:f3:6d:87:97:
                    e5:c8:15:92:eb:b8:6a:80:3e:f6:26:43:2b:5c:b0:
                    5d:71:fa:58:98:60:64:ee:54:a7:42:0a:df:c5:c3:
                    46:68:75:52:61:5d:58:dc:ca:cf:61:1e:e6:81:a0:
                    f3:a4:67:aa:90:60:bd:9c:c3:75:50:b4:57:c7:83:
                    3e:6a:60:9b:b6:e7:5c:4c:28:f7:98:00:f5:4a:cb:
                    26:0e:03:18:f4:0f:58:12:44:5e:f9:b4:0e:4c:35:
                    fa:72:f0:28:07:30:7c:bf:36:c2:0e:1f:6b:40:f7:
                    ec:57
                Exponent: 65537 (0x10001)
        X509v3 extensions:
            X509v3 Basic Constraints: 
                CA:FALSE
            X509v3 Subject Key Identifier: 
                10:F9:38:D7:A7:0A:F5:99:74:E2:B8:7D:97:01:09:C5:DE:36:91:46
            X509v3 Authority Key Identifier: 
                keyid:4F:4D:64:16:D3:0B:30:0C:96:E3:86:E8:D2:0F:68:20:CF:D0:DC:CD

    Signature Algorithm: sha1WithRSAEncryption
         39:34:8c:4f:3b:8d:a9:85:d5:f7:74:2e:c1:16:97:62:5c:86:
         74:78:ee:4c:b2:06:cf:3d:19:e3:4b:1d:b8:7c:f1:d8:9e:0a:
         71:92:55:2d:56:17:8b:40:4b:34:f8:56:4e:38:6b:20:e6:18:
         96:9b:72:41:31:e7:e6:a8:ad:1a:b9:6b:8a:c3:cb:f6:ed:04:
         58:f9:4a:03:e2:1e:ad:a6:81:8b:36:82:03:05:82:69:a6:51:
         3e:b9:3f:fa:30:4a:05:dd:ab:b3:f0:64:11:de:bb:8a:5b:af:
         4d:20:93:08:eb:62:7d:02:a9:a3:f2:32:f7:c6:9c:a9:37:61:
         75:5a:5d:d3:5e:f1:cd:ae:cb:75:69:74:72:73:db:56:3b:30:
         22:99:43:ac:54:74:c7:5d:35:6b:32:4b:3a:d1:4f:be:d5:83:
         1a:6e:b6:0d:72:be:16:42:61:b5:11:7d:ae:af:2a:c1:a9:aa:
         5a:74:79:fb:4b:bf:f8:e0:67:ce:41:86:e6:5f:86:38:b8:9f:
         06:2b:81:37:a1:c0:a6:4f:e0:fc:ea:35:52:3c:6d:5f:57:a4:
         dd:a2:03:01:74:9b:a9:aa:02:ef:d6:2b:a3:d4:1d:dc:6e:f1:
         8c:cb:19:68:b0:87:70:ba:b7:20:35:e3:05:1d:e4:0a:5a:ac:
         ab:94:6a:b6:fd:0d:4c:c7:aa:d8:59:3e:e8:7d:f3:a5:40:fa:
         03:8a:df:fc:4f:b4:c1:5f:8a:80:9d:cc:1a:25:d3:6c:b7:56:
         d3:6c:1b:96:07:c2:ba:85:b6:fb:d7:aa:60:12:de:9b:8f:f1:
         06:26:3b:2e:5d:0d:2d:c6:36:d7:14:e4:33:4c:86:2e:73:6f:
         5f:e4:24:d6:aa:55:ba:43:51:02:34:ee:0f:0a:a6:9d:b8:ba:
         68:2d:18:f8:bd:90:20:1c:3d:cc:3e:44:33:fb:e9:48:0b:1b:
         24:40:d3:4e:64:99:67:b1:5c:cd:00:14:65:37:09:ea:0e:ba:
         89:50:9d:4f:70:6c:37:e5:5d:b2:e9:25:c5:cc:75:35:93:c7:
         20:b1:fc:5c:73:30:1b:27:28:a5:ce:a0:66:1e:b9:b3:65:6d:
         e5:67:75:44:d2:8e:16:b1:b2:70:a6:fa:1f:0c:b4:38:5b:73:
         82:51:7e:ef:18:06:a5:b7:0f:aa:a1:4c:17:ce:24:a6:93:d5:
         98:0b:a9:3c:f2:70:e6:34:b0:6e:98:29:c5:ba:d4:ed:a1:4c:
         66:5c:d7:36:7d:1e:8c:79:87:23:dd:a0:a1:ce:f9:74:d4:ba:
         81:dc:1a:84:78:b1:64:e4:9b:26:7b:9c:20:6a:09:25:a0:13:
         f1:b6:87:8b:7f:a2:ec:c0
-----BEGIN CERTIFICATE-----
MIIE1zCCAr+gAwIBAgIBAzANBgkqhkiG9w0BAQUFADCBojELMAkGA1UEBhMCREUx
DzANBgNVBAgTBkJlcmxpbjEPMA0GA1UEBxMGQmVybGluMQ8wDQYDVQQKEwZaZW5P
cHMxEzARBgNVBAsTCk9wZXJhdGlvbnMxJjAkBgNVBAMTHUNlcnRpZmljYXRlIFNp
Z25pbmcgQXV0aG9yaXR5MSMwIQYJKoZIhvcNAQkBFhRob3N0bWFzdGVyQHplbm9w
cy5kZTAeFw0xMzAzMDkwOTUzNDlaFw0xNDAzMDkwOTUzNDlaMGwxCzAJBgNVBAYT
AkRFMQ8wDQYDVQQIEwZCZXJsaW4xDzANBgNVBAcTBkJlcmxpbjEPMA0GA1UEChMG
WmVuT3BzMRMwEQYDVQQLEwpPcGVyYXRpb25zMRUwEwYDVQQDEwxjaGFyaXRlYW0u
ZGUwggEiMA0GCSqGSIb3DQEBAQUAA4IBDwAwggEKAoIBAQDqffArGXJg9ksUt900
4qN3NJeQebLg4Exv9kporUUwMDv9vz8zROisfVip33YyocEfeGUjzPKR69wInhYD
e0KEK9Scve1p/kCdIPMT5wd5yxWxc46kIbQuKHnLsyff2w0XMKT4D7JR9R3i7dTa
Frdf0oEzM8c5xm6Deonqla9muFlAqBzU275+bo7BO12Feoa4822Hl+XIFZLruGqA
PvYmQytcsF1x+liYYGTuVKdCCt/Fw0ZodVJhXVjcys9hHuaBoPOkZ6qQYL2cw3VQ
tFfHgz5qYJu251xMKPeYAPVKyyYOAxj0D1gSRF75tA5MNfpy8CgHMHy/NsIOH2tA
9+xXAgMBAAGjTTBLMAkGA1UdEwQCMAAwHQYDVR0OBBYEFBD5ONenCvWZdOK4fZcB
CcXeNpFGMB8GA1UdIwQYMBaAFE9NZBbTCzAMluOG6NIPaCDP0NzNMA0GCSqGSIb3
DQEBBQUAA4ICAQA5NIxPO42phdX3dC7BFpdiXIZ0eO5MsgbPPRnjSx24fPHYngpx
klUtVheLQEs0+FZOOGsg5hiWm3JBMefmqK0auWuKw8v27QRY+UoD4h6tpoGLNoID
BYJpplE+uT/6MEoF3auz8GQR3ruKW69NIJMI62J9Aqmj8jL3xpypN2F1Wl3TXvHN
rst1aXRyc9tWOzAimUOsVHTHXTVrMks60U++1YMabrYNcr4WQmG1EX2uryrBqapa
dHn7S7/44GfOQYbmX4Y4uJ8GK4E3ocCmT+D86jVSPG1fV6TdogMBdJupqgLv1iuj
1B3cbvGMyxlosIdwurcgNeMFHeQKWqyrlGq2/Q1Mx6rYWT7offOlQPoDit/8T7TB
X4qAncwaJdNst1bTbBuWB8K6hbb716pgEt6bj/EGJjsuXQ0txjbXFOQzTIYuc29f
5CTWqlW6Q1ECNO4PCqaduLpoLRj4vZAgHD3MPkQz++lICxskQNNOZJlnsVzNABRl
NwnqDrqJUJ1PcGw35V2y6SXFzHU1k8cgsfxcczAbJyilzqBmHrmzZW3lZ3VE0o4W
sbJwpvofDLQ4W3OCUX7vGAaltw+qoUwXziSmk9WYC6k88nDmNLBumCnFutTtoUxm
XNc2fR6MeYcj3aChzvl01LqB3BqEeLFk5Jsme5wgagkloBPxtoeLf6LswA==
-----END CERTIFICATE-----
