Certificate:
    Data:
        Version: 3 (0x2)
        Serial Number: 4 (0x4)
        Signature Algorithm: sha1WithRSAEncryption
        Issuer: C=DE, ST=Berlin, L=Berlin, O=Example Com, OU=Operations, CN=Certificate Signing Authority/emailAddress=hostmaster@example.com
        Validity
            Not Before: Mar  1 20:26:59 2012 GMT
            Not After : Mar  1 20:26:59 2013 GMT
        Subject: C=DE, ST=Berlin, L=Berlin, O=Example Com, OU=Operations, CN=bocaloves.me
        Subject Public Key Info:
            Public Key Algorithm: rsaEncryption
                Public-Key: (2048 bit)
                Modulus:
                    00:cc:0f:4f:a6:46:c4:72:e0:80:02:52:10:94:c5:
                    f3:a6:9e:3d:bd:c0:36:91:be:d5:4f:67:59:b1:6e:
                    0a:74:9f:6d:e7:9c:d5:6b:de:43:ab:1f:7d:ec:8c:
                    47:2d:cc:82:4a:f2:dd:eb:71:ce:fe:30:20:40:f7:
                    53:06:b3:1d:f6:57:ca:28:b1:e0:fb:35:78:a3:81:
                    3c:ae:37:25:e7:66:2d:0a:ce:01:6e:24:a1:dc:f4:
                    63:81:3d:7f:ee:7d:e6:2d:eb:d1:e8:3d:18:4b:e0:
                    cd:ce:aa:e9:20:c5:25:7e:ac:52:6e:9f:c5:ac:37:
                    8a:31:a7:15:04:d8:33:a2:d9:6c:25:24:95:23:27:
                    59:ff:b0:51:23:47:40:f0:c2:bc:af:0c:a2:89:f9:
                    9b:b2:c3:a1:d8:b5:d1:ef:4e:7b:26:4a:35:73:98:
                    3f:57:b0:36:53:b9:ec:05:7c:a8:1a:c1:f6:cb:9a:
                    d9:56:85:fe:1f:41:b8:ed:4e:91:12:a2:17:d7:98:
                    d7:7f:98:62:32:1c:63:89:d7:06:d7:87:7b:ee:59:
                    1d:c0:78:d5:cf:30:c5:23:a2:d3:3d:18:5f:34:cc:
                    4d:3a:76:97:52:6c:e5:de:64:fc:f5:d3:db:35:68:
                    59:8e:9c:e3:0d:6d:dd:aa:9d:b6:31:82:10:6d:b6:
                    41:bd
                Exponent: 65537 (0x10001)
        X509v3 extensions:
            X509v3 Basic Constraints: 
                CA:FALSE
            X509v3 Subject Key Identifier: 
                9A:F1:9C:00:74:CB:A0:E6:6D:3C:5A:68:48:DB:13:C2:01:84:2F:71
            X509v3 Authority Key Identifier: 
                keyid:50:33:E6:BF:4D:B3:66:AA:26:97:06:9B:DB:57:24:DF:C1:49:66:E3

    Signature Algorithm: sha1WithRSAEncryption
        0f:ec:f2:b5:5f:23:2e:7f:5d:95:2a:bc:44:af:3f:c4:c1:02:
        e7:85:3e:5f:35:dc:d2:51:3f:1f:62:51:9e:aa:27:5c:6c:8d:
        9e:ec:51:0b:e0:e0:71:e6:b6:1e:66:26:6e:89:29:c6:d0:64:
        fa:e6:ec:9d:d1:65:ee:98:1f:17:c9:45:1a:4f:c9:66:d8:0c:
        00:a5:df:e6:b3:d7:c5:f2:6f:1c:d1:29:8d:39:52:e9:4a:94:
        64:38:2d:2e:f2:31:cc:3d:1b:cd:63:de:47:7b:63:fb:69:c6:
        82:5d:14:95:5f:d1:8e:a3:ba:8c:1f:16:80:52:8b:54:db:bc:
        fa:27:03:cd:ac:6e:45:16:32:c2:a9:f6:65:4f:5f:23:19:93:
        1c:fe:99:96:4a:dd:14:c9:a9:c1:90:ba:af:72:19:c5:63:65:
        b8:e1:57:5d:99:03:b0:3c:d1:8d:0e:34:91:a4:90:30:8e:d5:
        65:14:39:56:f3:28:c5:32:00:8c:d3:78:c9:70:97:39:ab:fa:
        22:11:89:03:58:ad:f7:92:97:72:9c:ae:05:2b:93:19:e9:e7:
        21:07:53:f1:66:6d:93:6d:9b:34:3b:a6:0a:00:c3:04:10:8e:
        d6:7c:14:9a:24:c6:c6:98:31:a6:f2:43:74:ea:40:3b:f3:5b:
        e9:e1:63:02:b7:0c:63:49:91:1a:48:d4:55:b6:ed:25:e0:8b:
        f9:06:4e:17:6e:dc:d4:0e:f8:0d:bf:3f:36:fe:0e:a6:32:07:
        4a:19:f6:1b:77:50:98:86:ee:4b:a5:fd:56:22:74:22:c6:02:
        c6:0b:d9:43:24:8b:25:17:f4:02:d5:e2:6b:94:d7:cf:38:1c:
        62:b6:a1:dd:d2:64:70:10:83:a2:5a:41:72:d3:70:b8:e6:2a:
        71:0a:d1:c4:90:27:cd:e8:4a:7e:73:4a:05:d3:6a:a0:07:31:
        d3:f4:be:ae:c4:d4:33:da:78:53:b4:86:c1:46:0e:f8:b7:62:
        95:0d:7b:cb:2e:92:41:5d:e2:8f:bb:98:90:3e:62:4e:12:7a:
        81:ab:4a:2a:bc:07:c1:84:08:19:e7:14:b7:08:77:8e:1e:19:
        b1:da:db:88:52:3d:98:d4:9e:b2:1b:56:f1:66:2d:d3:48:ed:
        d4:67:1e:9a:f9:78:15:5d:c2:d1:0a:8e:eb:ad:ee:6a:20:77:
        2a:38:5e:b2:e5:35:b6:24:fb:a7:1b:ba:f2:04:ff:36:2e:0d:
        b8:62:7a:19:03:94:7f:a0:90:78:38:ec:76:47:be:a4:3e:59:
        a6:d0:63:48:55:f2:44:84:ce:ef:28:13:de:67:8b:89:e2:59:
        8d:3a:7f:cf:84:9d:18:ab
-----BEGIN CERTIFICATE-----
MIIE4zCCAsugAwIBAgIBBDANBgkqhkiG9w0BAQUFADCBqTELMAkGA1UEBhMCREUx
DzANBgNVBAgTBkJlcmxpbjEPMA0GA1UEBxMGQmVybGluMRQwEgYDVQQKEwtFeGFt
cGxlIENvbTETMBEGA1UECxMKT3BlcmF0aW9uczEmMCQGA1UEAxMdQ2VydGlmaWNh
dGUgU2lnbmluZyBBdXRob3JpdHkxJTAjBgkqhkiG9w0BCQEWFmhvc3RtYXN0ZXJA
ZXhhbXBsZS5jb20wHhcNMTIwMzAxMjAyNjU5WhcNMTMwMzAxMjAyNjU5WjBxMQsw
CQYDVQQGEwJERTEPMA0GA1UECBMGQmVybGluMQ8wDQYDVQQHEwZCZXJsaW4xFDAS
BgNVBAoTC0V4YW1wbGUgQ29tMRMwEQYDVQQLEwpPcGVyYXRpb25zMRUwEwYDVQQD
Ewxib2NhbG92ZXMubWUwggEiMA0GCSqGSIb3DQEBAQUAA4IBDwAwggEKAoIBAQDM
D0+mRsRy4IACUhCUxfOmnj29wDaRvtVPZ1mxbgp0n23nnNVr3kOrH33sjEctzIJK
8t3rcc7+MCBA91MGsx32V8ooseD7NXijgTyuNyXnZi0KzgFuJKHc9GOBPX/ufeYt
69HoPRhL4M3OqukgxSV+rFJun8WsN4oxpxUE2DOi2WwlJJUjJ1n/sFEjR0Dwwryv
DKKJ+Zuyw6HYtdHvTnsmSjVzmD9XsDZTuewFfKgawfbLmtlWhf4fQbjtTpESohfX
mNd/mGIyHGOJ1wbXh3vuWR3AeNXPMMUjotM9GF80zE06dpdSbOXeZPz109s1aFmO
nOMNbd2qnbYxghBttkG9AgMBAAGjTTBLMAkGA1UdEwQCMAAwHQYDVR0OBBYEFJrx
nAB0y6DmbTxaaEjbE8IBhC9xMB8GA1UdIwQYMBaAFFAz5r9Ns2aqJpcGm9tXJN/B
SWbjMA0GCSqGSIb3DQEBBQUAA4ICAQAP7PK1XyMuf12VKrxErz/EwQLnhT5fNdzS
UT8fYlGeqidcbI2e7FEL4OBx5rYeZiZuiSnG0GT65uyd0WXumB8XyUUaT8lm2AwA
pd/ms9fF8m8c0SmNOVLpSpRkOC0u8jHMPRvNY95He2P7acaCXRSVX9GOo7qMHxaA
UotU27z6JwPNrG5FFjLCqfZlT18jGZMc/pmWSt0UyanBkLqvchnFY2W44VddmQOw
PNGNDjSRpJAwjtVlFDlW8yjFMgCM03jJcJc5q/oiEYkDWK33kpdynK4FK5MZ6ech
B1PxZm2TbZs0O6YKAMMEEI7WfBSaJMbGmDGm8kN06kA781vp4WMCtwxjSZEaSNRV
tu0l4Iv5Bk4XbtzUDvgNvz82/g6mMgdKGfYbd1CYhu5Lpf1WInQixgLGC9lDJIsl
F/QC1eJrlNfPOBxitqHd0mRwEIOiWkFy03C45ipxCtHEkCfN6Ep+c0oF02qgBzHT
9L6uxNQz2nhTtIbBRg74t2KVDXvLLpJBXeKPu5iQPmJOEnqBq0oqvAfBhAgZ5xS3
CHeOHhmx2tuIUj2Y1J6yG1bxZi3TSO3UZx6a+XgVXcLRCo7rre5qIHcqOF6y5TW2
JPunG7ryBP82Lg24YnoZA5R/oJB4OOx2R76kPlmm0GNIVfJEhM7vKBPeZ4uJ4lmN
On/PhJ0Yqw==
-----END CERTIFICATE-----
