Certificate:
    Data:
        Version: 3 (0x2)
        Serial Number: 7 (0x7)
    Signature Algorithm: sha1WithRSAEncryption
        Issuer: C=DE, ST=Berlin, L=Berlin, O=ZenOps, OU=Operations, CN=Certificate Signing Authority/emailAddress=hostmaster@zenops.de
        Validity
            Not Before: Mar  9 09:53:54 2013 GMT
            Not After : Mar  9 09:53:54 2014 GMT
        Subject: C=DE, ST=Berlin, L=Berlin, O=ZenOps, OU=Operations, CN=kali.xnull.de
        Subject Public Key Info:
            Public Key Algorithm: rsaEncryption
                Public-Key: (2048 bit)
                Modulus:
                    00:cb:be:90:48:67:d5:98:85:ee:bd:da:19:80:ec:
                    b4:81:11:3c:ec:c9:cb:ab:c7:21:31:c2:17:46:cd:
                    ce:82:19:c2:37:2e:63:6d:bb:c3:9a:39:b7:9c:15:
                    cd:36:b6:d4:80:cd:b3:10:c4:a6:df:4e:f0:b7:49:
                    e7:4d:dc:36:b0:22:37:f0:2f:57:f6:f2:fb:ef:51:
                    9b:0e:46:a2:22:c0:81:65:a8:b1:74:1a:18:30:49:
                    1f:bc:92:4e:55:74:be:65:de:ee:e1:bd:f2:8c:b8:
                    ee:75:1a:71:ac:8c:32:f7:d2:55:58:75:02:10:f9:
                    f2:4e:5e:9a:39:45:97:53:09:9e:fc:f2:5c:a3:7f:
                    6e:ae:3e:86:13:b1:4d:89:e1:81:c5:3c:13:8f:56:
                    7c:41:f3:0d:c9:fb:4b:e2:11:d2:07:f7:9b:b6:be:
                    1b:57:4b:15:f3:6f:9e:3b:ed:2b:64:5e:c0:52:d7:
                    fe:c9:2c:85:0b:a0:0e:c6:d9:f2:37:63:23:e8:8d:
                    70:03:82:43:19:4b:d0:88:ab:78:12:86:14:61:b7:
                    bd:7d:f4:f5:60:49:b8:5e:99:5d:fe:ec:af:5e:ec:
                    17:57:23:4c:e8:5a:3c:e7:25:6f:0d:92:87:4d:e0:
                    09:4c:3a:75:4c:b3:b2:7c:d5:bc:ff:9e:7b:40:63:
                    57:89
                Exponent: 65537 (0x10001)
        X509v3 extensions:
            X509v3 Basic Constraints: 
                CA:FALSE
            X509v3 Subject Key Identifier: 
                2D:A5:17:BB:87:90:B5:65:35:10:3C:7B:2E:E8:61:62:55:7E:9B:BB
            X509v3 Authority Key Identifier: 
                keyid:4F:4D:64:16:D3:0B:30:0C:96:E3:86:E8:D2:0F:68:20:CF:D0:DC:CD

    Signature Algorithm: sha1WithRSAEncryption
         13:f3:01:96:15:a0:b0:6b:2a:14:c7:3a:23:c4:41:e7:ae:86:
         65:82:b2:08:01:61:2a:65:fa:f8:21:f3:32:25:35:4f:15:36:
         86:10:99:5a:a1:3f:5c:6c:a0:88:86:6d:77:5d:2a:38:aa:6b:
         bf:4f:00:9a:c3:c7:08:29:a5:b1:db:78:c2:93:04:39:6f:bf:
         b0:50:99:6c:af:c2:7f:7e:bc:69:4f:0c:b6:39:88:69:a2:8c:
         7a:ba:c5:4d:95:3b:e0:6c:c7:cd:65:41:96:dc:0e:2c:7f:ad:
         44:3a:7f:5f:88:8b:35:b7:65:1b:68:c2:40:d5:c9:dd:19:6a:
         30:e8:f7:96:df:39:11:f9:2a:17:0d:46:c1:12:60:f1:07:59:
         b7:de:36:34:e9:dc:6d:aa:36:b6:2b:4d:98:d1:6a:ad:94:e0:
         e3:6c:18:fd:60:b4:ea:32:00:17:70:20:43:06:a0:96:b4:20:
         a8:09:1f:4a:2c:de:bf:a6:1f:03:68:09:3a:d2:cd:9d:fd:45:
         77:a4:41:55:35:c4:48:c2:e0:92:9d:30:76:74:1d:26:87:34:
         05:25:25:bb:17:66:31:33:a3:15:52:f1:c2:7c:6b:64:ea:c9:
         b6:e9:c4:94:cf:51:69:fb:db:7d:82:f9:fd:70:c4:5a:6a:25:
         de:ad:68:3a:40:23:1c:a5:30:ef:b6:41:19:a2:30:d7:7e:2e:
         62:91:31:a3:ab:a3:ee:92:0c:98:79:34:d9:c4:79:be:4b:24:
         34:b5:b1:ea:2c:1f:11:e5:88:bd:cd:a1:13:8b:fc:c9:6f:76:
         b3:dc:20:37:5d:d2:b2:c9:7f:6b:c0:7c:a2:2f:4d:51:66:9c:
         07:f9:33:fc:65:28:b3:08:b6:59:19:24:40:a0:0d:10:ab:3a:
         a5:c5:08:b4:b0:20:2d:34:6b:bc:e4:96:a2:3f:0f:8d:af:0f:
         47:f5:6b:cb:7d:23:bf:ee:a8:c9:e7:4f:66:0a:5a:ce:fa:46:
         06:4a:0f:51:07:c0:24:68:7d:50:23:bc:9b:6e:cf:cd:3d:89:
         d8:15:51:5a:31:e4:81:da:ea:22:4c:c3:0f:98:9f:87:ea:cf:
         b1:3e:14:65:9e:9c:cb:ac:8d:6e:fe:5e:fb:71:c3:d2:35:11:
         8e:aa:62:c3:7e:a4:8d:fd:24:17:4b:62:c6:07:ce:f8:22:18:
         6b:c4:5e:b3:c1:c6:6f:ef:8d:c4:a2:d7:5f:36:a2:1f:d2:40:
         6a:62:30:ef:e5:49:08:95:9c:0c:ad:af:f4:71:be:38:09:91:
         b9:52:ab:96:cf:56:48:cd:0a:b7:55:64:b9:74:e7:52:0d:7e:
         0a:0a:8d:5b:94:d4:03:3b
-----BEGIN CERTIFICATE-----
MIIE2DCCAsCgAwIBAgIBBzANBgkqhkiG9w0BAQUFADCBojELMAkGA1UEBhMCREUx
DzANBgNVBAgTBkJlcmxpbjEPMA0GA1UEBxMGQmVybGluMQ8wDQYDVQQKEwZaZW5P
cHMxEzARBgNVBAsTCk9wZXJhdGlvbnMxJjAkBgNVBAMTHUNlcnRpZmljYXRlIFNp
Z25pbmcgQXV0aG9yaXR5MSMwIQYJKoZIhvcNAQkBFhRob3N0bWFzdGVyQHplbm9w
cy5kZTAeFw0xMzAzMDkwOTUzNTRaFw0xNDAzMDkwOTUzNTRaMG0xCzAJBgNVBAYT
AkRFMQ8wDQYDVQQIEwZCZXJsaW4xDzANBgNVBAcTBkJlcmxpbjEPMA0GA1UEChMG
WmVuT3BzMRMwEQYDVQQLEwpPcGVyYXRpb25zMRYwFAYDVQQDEw1rYWxpLnhudWxs
LmRlMIIBIjANBgkqhkiG9w0BAQEFAAOCAQ8AMIIBCgKCAQEAy76QSGfVmIXuvdoZ
gOy0gRE87MnLq8chMcIXRs3OghnCNy5jbbvDmjm3nBXNNrbUgM2zEMSm307wt0nn
Tdw2sCI38C9X9vL771GbDkaiIsCBZaixdBoYMEkfvJJOVXS+Zd7u4b3yjLjudRpx
rIwy99JVWHUCEPnyTl6aOUWXUwme/PJco39urj6GE7FNieGBxTwTj1Z8QfMNyftL
4hHSB/ebtr4bV0sV82+eO+0rZF7AUtf+ySyFC6AOxtnyN2Mj6I1wA4JDGUvQiKt4
EoYUYbe9ffT1YEm4Xpld/uyvXuwXVyNM6Fo85yVvDZKHTeAJTDp1TLOyfNW8/557
QGNXiQIDAQABo00wSzAJBgNVHRMEAjAAMB0GA1UdDgQWBBQtpRe7h5C1ZTUQPHsu
6GFiVX6buzAfBgNVHSMEGDAWgBRPTWQW0wswDJbjhujSD2ggz9DczTANBgkqhkiG
9w0BAQUFAAOCAgEAE/MBlhWgsGsqFMc6I8RB566GZYKyCAFhKmX6+CHzMiU1TxU2
hhCZWqE/XGygiIZtd10qOKprv08AmsPHCCmlsdt4wpMEOW+/sFCZbK/Cf368aU8M
tjmIaaKMerrFTZU74GzHzWVBltwOLH+tRDp/X4iLNbdlG2jCQNXJ3RlqMOj3lt85
EfkqFw1GwRJg8QdZt942NOncbao2titNmNFqrZTg42wY/WC06jIAF3AgQwaglrQg
qAkfSizev6YfA2gJOtLNnf1Fd6RBVTXESMLgkp0wdnQdJoc0BSUluxdmMTOjFVLx
wnxrZOrJtunElM9RafvbfYL5/XDEWmol3q1oOkAjHKUw77ZBGaIw134uYpExo6uj
7pIMmHk02cR5vkskNLWx6iwfEeWIvc2hE4v8yW92s9wgN13Sssl/a8B8oi9NUWac
B/kz/GUoswi2WRkkQKANEKs6pcUItLAgLTRrvOSWoj8Pja8PR/Vry30jv+6oyedP
ZgpazvpGBkoPUQfAJGh9UCO8m27PzT2J2BVRWjHkgdrqIkzDD5ifh+rPsT4UZZ6c
y6yNbv5e+3HD0jURjqpiw36kjf0kF0tixgfO+CIYa8Res8HGb++NxKLXXzaiH9JA
amIw7+VJCJWcDK2v9HG+OAmRuVKrls9WSM0Kt1VkuXTnUg1+CgqNW5TUAzs=
-----END CERTIFICATE-----
