Certificate:
    Data:
        Version: 3 (0x2)
        Serial Number: 8 (0x8)
    Signature Algorithm: sha1WithRSAEncryption
        Issuer: C=DE, ST=Berlin, L=Berlin, O=ZenOps, OU=Operations, CN=Certificate Signing Authority/emailAddress=hostmaster@zenops.de
        Validity
            Not Before: Mar  9 09:53:56 2013 GMT
            Not After : Mar  9 09:53:56 2014 GMT
        Subject: C=DE, ST=Berlin, L=Berlin, O=ZenOps, OU=Operations, CN=linux-vserver.org
        Subject Public Key Info:
            Public Key Algorithm: rsaEncryption
                Public-Key: (2048 bit)
                Modulus:
                    00:d3:f3:25:82:e3:71:34:6d:ce:cf:e5:84:64:3a:
                    93:15:77:94:b5:39:da:bd:02:0d:a0:4c:d6:14:2f:
                    4e:a3:b8:df:e4:ac:e6:a4:9c:e8:d0:c2:a6:ea:ec:
                    c6:20:14:85:a4:40:83:06:40:cc:99:81:9c:06:49:
                    5c:9d:c7:e1:61:9e:c0:ca:51:a2:3c:db:98:9d:eb:
                    ff:ed:ae:2a:05:55:0b:cd:0f:2f:86:9e:2f:c3:12:
                    c5:09:39:9f:93:a6:2c:d7:95:41:39:c1:f2:0c:c7:
                    9c:81:1c:d0:ae:3a:7a:83:28:67:a3:a7:e0:12:42:
                    49:7f:c8:84:20:77:c1:c3:41:57:73:8e:8e:65:28:
                    f2:90:74:a0:3a:84:03:b5:60:2a:db:bf:41:d0:4b:
                    fa:58:6b:36:f4:97:29:57:e4:11:bb:60:01:2c:fb:
                    f0:46:3e:7d:cc:b4:32:91:0c:bc:28:e9:8e:e3:13:
                    8a:b6:f1:83:5b:7e:4e:26:83:1b:9b:a1:5e:fb:de:
                    bd:da:03:68:bf:1f:17:56:5b:a1:79:95:69:c3:23:
                    cb:35:d1:0f:0a:e4:e6:cc:6d:a9:9e:e3:05:14:42:
                    ce:88:79:62:97:a7:09:ac:b8:f1:b6:e4:4f:22:64:
                    13:ba:3e:db:00:a0:c6:db:43:8f:92:6d:18:73:2f:
                    49:d7
                Exponent: 65537 (0x10001)
        X509v3 extensions:
            X509v3 Basic Constraints: 
                CA:FALSE
            X509v3 Subject Key Identifier: 
                A7:78:B2:EB:E5:28:82:51:AE:BE:64:8C:3E:C4:2A:CB:60:3B:26:48
            X509v3 Authority Key Identifier: 
                keyid:4F:4D:64:16:D3:0B:30:0C:96:E3:86:E8:D2:0F:68:20:CF:D0:DC:CD

    Signature Algorithm: sha1WithRSAEncryption
         47:b9:24:0b:2a:80:ac:91:3a:fe:b8:ad:af:8a:d1:e0:96:6b:
         18:0d:00:4d:05:4a:e7:71:b0:55:a8:d0:d6:d4:31:26:d7:12:
         45:79:6b:df:aa:32:06:53:5d:20:81:09:af:ae:e7:ac:65:16:
         dd:d6:40:d4:f7:8e:2a:4c:20:5b:af:d6:bb:8a:42:5d:b9:b4:
         08:f1:00:2b:17:65:9b:90:fe:e0:07:b4:66:4a:f8:67:0d:46:
         5f:3b:f4:29:e9:6f:26:ba:d7:f6:a3:95:64:15:60:81:c0:23:
         62:8f:91:c2:f6:22:3d:0f:3d:6f:fa:6f:85:00:63:3d:f5:b9:
         7a:b5:45:82:fe:f1:23:3b:43:33:f7:08:d4:6e:01:5d:3e:bb:
         15:08:bf:95:d0:66:40:c9:37:3d:df:3d:f3:24:28:6f:78:9b:
         35:2c:9e:8b:09:b4:b8:f5:00:a7:48:79:ed:10:8b:dc:e5:2d:
         97:64:ad:47:a3:fa:99:76:6a:28:60:42:e9:57:dc:10:bd:54:
         67:02:af:a5:a1:5e:fc:bd:59:68:4c:55:db:4d:e2:fb:fc:52:
         1f:28:68:ce:8e:26:08:29:1c:3e:b8:55:f8:d7:50:0e:9a:2c:
         8a:f1:bf:ac:5a:9e:74:99:e5:95:cc:67:20:61:87:ca:2c:63:
         8e:b7:ff:6c:ea:2f:87:cf:77:1a:c0:1f:89:1c:28:43:1a:11:
         44:1c:20:f9:4b:19:f6:91:1a:29:1b:51:0c:4c:fd:25:f0:d7:
         ad:47:f1:5b:1a:5c:fd:8d:6c:6a:76:7a:31:90:57:cf:17:9f:
         39:73:d6:1f:28:ce:e2:18:a4:bf:06:3e:17:50:f4:ed:ed:02:
         d5:45:93:61:55:9e:87:69:7c:5e:1f:86:d2:cd:58:2d:6b:b5:
         2b:14:b2:e6:b7:69:0f:ad:fe:4f:45:12:b1:3a:82:3d:04:07:
         52:5a:b0:8f:cd:61:3b:31:0a:55:57:95:b5:d8:82:f6:b7:f1:
         ac:13:5c:06:4f:e7:bb:03:c6:95:c9:33:ab:5c:e8:92:ed:94:
         32:14:4c:56:f9:5f:c4:c8:e6:d1:88:54:18:e3:bc:55:6a:ed:
         42:4c:87:ff:21:3e:a8:88:7d:53:27:c3:38:66:08:27:01:93:
         fd:2e:ec:9b:b5:b1:1e:8b:be:36:30:e7:8a:5f:45:d1:ea:b1:
         12:30:85:a3:8f:f9:9b:38:a5:44:53:24:b3:b2:84:d9:e7:3e:
         1d:b5:9d:b1:92:60:1e:1b:1f:0a:4f:9f:79:7c:82:7d:b6:df:
         41:5e:24:a9:e8:93:ed:15:96:6e:91:69:f4:fc:a0:57:9b:df:
         2c:72:7a:a2:5d:02:5a:72
-----BEGIN CERTIFICATE-----
MIIE3DCCAsSgAwIBAgIBCDANBgkqhkiG9w0BAQUFADCBojELMAkGA1UEBhMCREUx
DzANBgNVBAgTBkJlcmxpbjEPMA0GA1UEBxMGQmVybGluMQ8wDQYDVQQKEwZaZW5P
cHMxEzARBgNVBAsTCk9wZXJhdGlvbnMxJjAkBgNVBAMTHUNlcnRpZmljYXRlIFNp
Z25pbmcgQXV0aG9yaXR5MSMwIQYJKoZIhvcNAQkBFhRob3N0bWFzdGVyQHplbm9w
cy5kZTAeFw0xMzAzMDkwOTUzNTZaFw0xNDAzMDkwOTUzNTZaMHExCzAJBgNVBAYT
AkRFMQ8wDQYDVQQIEwZCZXJsaW4xDzANBgNVBAcTBkJlcmxpbjEPMA0GA1UEChMG
WmVuT3BzMRMwEQYDVQQLEwpPcGVyYXRpb25zMRowGAYDVQQDExFsaW51eC12c2Vy
dmVyLm9yZzCCASIwDQYJKoZIhvcNAQEBBQADggEPADCCAQoCggEBANPzJYLjcTRt
zs/lhGQ6kxV3lLU52r0CDaBM1hQvTqO43+Ss5qSc6NDCpursxiAUhaRAgwZAzJmB
nAZJXJ3H4WGewMpRojzbmJ3r/+2uKgVVC80PL4aeL8MSxQk5n5OmLNeVQTnB8gzH
nIEc0K46eoMoZ6On4BJCSX/IhCB3wcNBV3OOjmUo8pB0oDqEA7VgKtu/QdBL+lhr
NvSXKVfkEbtgASz78EY+fcy0MpEMvCjpjuMTirbxg1t+TiaDG5uhXvvevdoDaL8f
F1ZboXmVacMjyzXRDwrk5sxtqZ7jBRRCzoh5YpenCay48bbkTyJkE7o+2wCgxttD
j5JtGHMvSdcCAwEAAaNNMEswCQYDVR0TBAIwADAdBgNVHQ4EFgQUp3iy6+UoglGu
vmSMPsQqy2A7JkgwHwYDVR0jBBgwFoAUT01kFtMLMAyW44bo0g9oIM/Q3M0wDQYJ
KoZIhvcNAQEFBQADggIBAEe5JAsqgKyROv64ra+K0eCWaxgNAE0FSudxsFWo0NbU
MSbXEkV5a9+qMgZTXSCBCa+u56xlFt3WQNT3jipMIFuv1ruKQl25tAjxACsXZZuQ
/uAHtGZK+GcNRl879Cnpbya61/ajlWQVYIHAI2KPkcL2Ij0PPW/6b4UAYz31uXq1
RYL+8SM7QzP3CNRuAV0+uxUIv5XQZkDJNz3fPfMkKG94mzUsnosJtLj1AKdIee0Q
i9zlLZdkrUej+pl2aihgQulX3BC9VGcCr6WhXvy9WWhMVdtN4vv8Uh8oaM6OJggp
HD64VfjXUA6aLIrxv6xannSZ5ZXMZyBhh8osY463/2zqL4fPdxrAH4kcKEMaEUQc
IPlLGfaRGikbUQxM/SXw161H8VsaXP2NbGp2ejGQV88Xnzlz1h8ozuIYpL8GPhdQ
9O3tAtVFk2FVnodpfF4fhtLNWC1rtSsUsua3aQ+t/k9FErE6gj0EB1JasI/NYTsx
ClVXlbXYgva38awTXAZP57sDxpXJM6tc6JLtlDIUTFb5X8TI5tGIVBjjvFVq7UJM
h/8hPqiIfVMnwzhmCCcBk/0u7Ju1sR6LvjYw54pfRdHqsRIwhaOP+Zs4pURTJLOy
hNnnPh21nbGSYB4bHwpPn3l8gn2230FeJKnok+0Vlm6RafT8oFeb3yxyeqJdAlpy
-----END CERTIFICATE-----
