Certificate:
    Data:
        Version: 3 (0x2)
        Serial Number: 9 (0x9)
    Signature Algorithm: sha1WithRSAEncryption
        Issuer: C=DE, ST=Berlin, L=Berlin, O=ZenOps, OU=Operations, CN=Certificate Signing Authority/emailAddress=hostmaster@zenops.de
        Validity
            Not Before: Mar  9 09:53:57 2013 GMT
            Not After : Mar  9 09:53:57 2014 GMT
        Subject: C=DE, ST=Berlin, L=Berlin, O=ZenOps, OU=Operations, CN=nagios.zenops.net
        Subject Public Key Info:
            Public Key Algorithm: rsaEncryption
                Public-Key: (2048 bit)
                Modulus:
                    00:d1:f9:63:c7:d3:0c:5a:d7:42:9b:79:9a:c7:7f:
                    f5:e6:db:e4:dd:0c:ba:5e:b2:43:58:84:4a:1c:6e:
                    3c:cc:d7:66:e5:2d:ad:d7:2b:65:2f:1a:b3:6e:ee:
                    8b:d1:73:ea:f9:e4:58:40:4b:e8:22:67:e3:b3:a6:
                    27:1e:c8:f6:fb:8e:5c:e3:c7:9c:6a:d8:71:50:94:
                    3b:60:f2:4c:fb:8b:90:44:33:0c:b4:f4:64:6d:b5:
                    44:bd:b6:9a:3a:09:4c:d2:16:f8:99:d7:3c:1b:7f:
                    eb:c9:c5:a8:49:65:47:77:0e:2b:68:3b:55:f1:bc:
                    ba:6f:5f:6a:84:4f:0e:03:9e:52:59:44:a3:42:36:
                    b0:89:8d:21:12:35:b9:c3:5d:67:c8:99:28:95:88:
                    8d:be:4f:db:3c:66:26:b5:42:e0:4f:78:13:97:a2:
                    71:19:e5:31:13:7d:3a:b9:4c:2e:1f:fe:df:d8:14:
                    07:69:fd:29:ea:a3:02:fa:35:c5:47:76:58:34:f1:
                    58:b9:a6:cd:39:76:41:83:40:78:b6:d0:0a:38:f6:
                    a3:16:1e:91:b1:5c:4b:ee:4c:97:c2:cc:8b:ba:38:
                    f0:45:9f:1c:96:1e:49:b4:fc:29:1f:d1:a6:55:e5:
                    80:21:a7:87:a4:2b:13:4a:3d:d3:11:82:17:ff:a5:
                    29:e1
                Exponent: 65537 (0x10001)
        X509v3 extensions:
            X509v3 Basic Constraints: 
                CA:FALSE
            X509v3 Subject Key Identifier: 
                3D:AD:3B:17:E7:52:C4:06:8A:3F:60:F7:A2:46:BB:50:71:C5:14:5F
            X509v3 Authority Key Identifier: 
                keyid:4F:4D:64:16:D3:0B:30:0C:96:E3:86:E8:D2:0F:68:20:CF:D0:DC:CD

    Signature Algorithm: sha1WithRSAEncryption
         bf:dc:9f:09:a1:b3:2c:3a:4f:e3:1a:3d:19:f3:84:fc:16:25:
         cb:db:da:b9:ce:70:a8:d7:99:36:34:64:84:9c:e3:47:c4:ff:
         eb:78:37:22:0e:58:e3:99:f9:e1:7f:82:b8:de:72:9a:7e:55:
         10:ea:7f:68:76:90:fa:cf:27:76:6a:79:f0:8f:28:9f:2a:5d:
         14:48:e9:79:66:74:73:7c:d4:71:76:54:7e:ab:fe:63:77:70:
         83:c6:76:7c:e8:51:6c:9a:18:d3:5b:90:c1:00:51:90:c9:db:
         b0:de:01:c2:54:6c:87:58:90:51:cb:71:57:a9:6e:f1:be:89:
         e5:08:36:97:35:30:34:ad:43:88:0f:6f:7c:9b:8b:0f:c6:59:
         8f:f4:ae:34:9c:eb:4d:34:a4:ff:0f:76:03:ef:fb:23:4a:cb:
         ae:0c:f0:44:ca:04:a4:77:b6:48:07:b7:6e:8a:be:a9:c3:14:
         81:ae:95:ab:76:ad:ca:cf:cb:c8:bd:fb:02:45:83:64:ab:f5:
         91:d9:d2:55:35:f2:b3:4f:d2:42:97:d4:a2:25:dd:8a:3c:01:
         e7:6d:50:52:aa:f5:53:29:d3:52:48:90:67:e0:42:31:da:95:
         20:53:67:04:e2:41:d3:10:4e:b5:e4:52:1d:2a:20:03:02:76:
         6f:2b:71:49:3f:75:05:9c:30:0b:aa:39:b5:24:6f:2f:71:81:
         3f:8a:84:85:9e:45:52:df:7c:cb:a4:33:84:d5:d8:0f:71:94:
         13:13:45:40:8e:d0:f1:1c:97:1e:4a:20:19:5e:dd:6f:f6:b4:
         cc:72:d3:38:08:e2:09:ce:4b:01:28:38:81:f9:4e:b0:35:28:
         5d:5b:32:44:e6:f3:3a:25:de:de:80:ed:47:24:b5:3b:69:ad:
         f2:55:f7:20:a4:5d:40:fb:3f:10:79:f4:07:a1:d0:dc:57:e7:
         0a:b6:69:f2:9f:d0:c4:f7:3d:6d:da:72:34:63:90:8e:c1:ee:
         1a:15:76:f3:58:27:9a:19:a6:10:8a:ff:cf:fe:d1:78:35:3d:
         04:c9:47:9e:76:57:da:ea:45:d2:69:bf:46:67:c0:ef:94:68:
         18:e7:cd:4c:e7:96:d1:b3:89:18:eb:68:03:27:c7:7f:c0:bb:
         59:70:87:09:a8:50:f9:11:40:f6:10:ed:f8:ac:ee:d7:21:2d:
         46:b8:f3:d0:2b:b0:28:59:9b:f2:aa:8b:b1:d5:ea:6f:c3:22:
         26:dc:34:bd:9f:bd:3d:be:79:3f:11:16:03:91:91:f5:d7:61:
         08:68:da:b5:1c:b3:1d:f2:02:df:3e:00:0c:f2:2e:0d:63:56:
         2c:e2:b5:f5:97:d0:f5:71
-----BEGIN CERTIFICATE-----
MIIE3DCCAsSgAwIBAgIBCTANBgkqhkiG9w0BAQUFADCBojELMAkGA1UEBhMCREUx
DzANBgNVBAgTBkJlcmxpbjEPMA0GA1UEBxMGQmVybGluMQ8wDQYDVQQKEwZaZW5P
cHMxEzARBgNVBAsTCk9wZXJhdGlvbnMxJjAkBgNVBAMTHUNlcnRpZmljYXRlIFNp
Z25pbmcgQXV0aG9yaXR5MSMwIQYJKoZIhvcNAQkBFhRob3N0bWFzdGVyQHplbm9w
cy5kZTAeFw0xMzAzMDkwOTUzNTdaFw0xNDAzMDkwOTUzNTdaMHExCzAJBgNVBAYT
AkRFMQ8wDQYDVQQIEwZCZXJsaW4xDzANBgNVBAcTBkJlcmxpbjEPMA0GA1UEChMG
WmVuT3BzMRMwEQYDVQQLEwpPcGVyYXRpb25zMRowGAYDVQQDExFuYWdpb3MuemVu
b3BzLm5ldDCCASIwDQYJKoZIhvcNAQEBBQADggEPADCCAQoCggEBANH5Y8fTDFrX
Qpt5msd/9ebb5N0Mul6yQ1iEShxuPMzXZuUtrdcrZS8as27ui9Fz6vnkWEBL6CJn
47OmJx7I9vuOXOPHnGrYcVCUO2DyTPuLkEQzDLT0ZG21RL22mjoJTNIW+JnXPBt/
68nFqEllR3cOK2g7VfG8um9faoRPDgOeUllEo0I2sImNIRI1ucNdZ8iZKJWIjb5P
2zxmJrVC4E94E5eicRnlMRN9OrlMLh/+39gUB2n9KeqjAvo1xUd2WDTxWLmmzTl2
QYNAeLbQCjj2oxYekbFcS+5Ml8LMi7o48EWfHJYeSbT8KR/RplXlgCGnh6QrE0o9
0xGCF/+lKeECAwEAAaNNMEswCQYDVR0TBAIwADAdBgNVHQ4EFgQUPa07F+dSxAaK
P2D3oka7UHHFFF8wHwYDVR0jBBgwFoAUT01kFtMLMAyW44bo0g9oIM/Q3M0wDQYJ
KoZIhvcNAQEFBQADggIBAL/cnwmhsyw6T+MaPRnzhPwWJcvb2rnOcKjXmTY0ZISc
40fE/+t4NyIOWOOZ+eF/grjecpp+VRDqf2h2kPrPJ3ZqefCPKJ8qXRRI6XlmdHN8
1HF2VH6r/mN3cIPGdnzoUWyaGNNbkMEAUZDJ27DeAcJUbIdYkFHLcVepbvG+ieUI
Npc1MDStQ4gPb3ybiw/GWY/0rjSc6000pP8PdgPv+yNKy64M8ETKBKR3tkgHt26K
vqnDFIGulat2rcrPy8i9+wJFg2Sr9ZHZ0lU18rNP0kKX1KIl3Yo8AedtUFKq9VMp
01JIkGfgQjHalSBTZwTiQdMQTrXkUh0qIAMCdm8rcUk/dQWcMAuqObUkby9xgT+K
hIWeRVLffMukM4TV2A9xlBMTRUCO0PEclx5KIBle3W/2tMxy0zgI4gnOSwEoOIH5
TrA1KF1bMkTm8zol3t6A7UcktTtprfJV9yCkXUD7PxB59Aeh0NxX5wq2afKf0MT3
PW3acjRjkI7B7hoVdvNYJ5oZphCK/8/+0Xg1PQTJR552V9rqRdJpv0ZnwO+UaBjn
zUznltGziRjraAMnx3/Au1lwhwmoUPkRQPYQ7fis7tchLUa489ArsChZm/Kqi7HV
6m/DIibcNL2fvT2+eT8RFgORkfXXYQho2rUcsx3yAt8+AAzyLg1jVizitfWX0PVx
-----END CERTIFICATE-----
