Certificate:
    Data:
        Version: 3 (0x2)
        Serial Number: 9 (0x9)
        Signature Algorithm: sha1WithRSAEncryption
        Issuer: C=DE, ST=Berlin, L=Berlin, O=Example Com, OU=Operations, CN=Certificate Signing Authority/emailAddress=hostmaster@example.com
        Validity
            Not Before: Mar 15 10:45:36 2012 GMT
            Not After : Mar 15 10:45:36 2013 GMT
        Subject: C=DE, ST=Berlin, L=Berlin, O=Example Com, OU=Operations, CN=kanbanero.com
        Subject Public Key Info:
            Public Key Algorithm: rsaEncryption
                Public-Key: (2048 bit)
                Modulus:
                    00:aa:e6:69:aa:f2:8c:9c:58:5e:5c:c9:4f:61:77:
                    3a:09:4f:2f:20:14:87:7b:d2:b2:0e:b3:c2:7d:95:
                    61:f8:cf:4b:3d:19:ff:c4:27:c3:e7:10:da:99:1c:
                    8c:b5:37:0c:ed:85:97:bd:5e:2b:a9:8c:d0:4b:59:
                    a3:66:6f:2d:aa:7e:88:34:62:61:69:bf:fc:61:49:
                    4d:41:b6:48:a9:31:c2:ad:2c:67:8d:aa:ee:06:a4:
                    f4:4e:a2:23:aa:43:19:e6:55:32:d8:a1:7e:62:6c:
                    fc:c0:ed:26:a8:22:58:04:6d:1b:6a:be:b2:60:12:
                    32:6a:45:23:26:8f:3e:08:17:67:93:8b:f0:d7:f4:
                    ec:81:a0:21:97:0a:09:ea:46:46:23:67:5c:4d:7f:
                    2b:28:8f:76:9a:d9:b8:46:71:f6:8c:72:06:02:5b:
                    82:f7:66:d2:9c:f4:a4:5e:88:92:45:0d:04:bb:d1:
                    4b:d6:d0:2a:01:a4:67:0d:8d:e1:af:0b:3a:7b:1c:
                    69:b6:c8:06:4e:0a:77:d5:d2:8a:59:73:46:49:c9:
                    c7:e3:33:d7:ef:4a:db:89:15:ae:81:55:be:43:25:
                    f4:a1:6b:06:37:cc:63:2e:d2:df:8a:e5:84:ce:ba:
                    3c:39:7c:84:04:19:b4:83:35:12:20:cc:58:8a:79:
                    08:8b
                Exponent: 65537 (0x10001)
        X509v3 extensions:
            X509v3 Basic Constraints: 
                CA:FALSE
            X509v3 Subject Key Identifier: 
                0F:24:1D:8A:76:11:1F:C6:45:75:72:D5:FE:5E:54:63:8D:55:22:FB
            X509v3 Authority Key Identifier: 
                keyid:50:33:E6:BF:4D:B3:66:AA:26:97:06:9B:DB:57:24:DF:C1:49:66:E3

    Signature Algorithm: sha1WithRSAEncryption
        5b:07:0f:9d:81:45:75:e9:b5:26:73:e0:1f:1c:45:57:1d:3e:
        9e:14:8f:c0:27:b8:60:e9:1f:0b:4f:5a:39:d3:29:a3:24:6c:
        fc:b8:ea:d3:66:fe:65:d4:39:5c:86:e0:e2:f6:3e:e1:c9:ef:
        f0:9e:1d:54:6c:43:c5:f1:cf:d4:20:f3:a9:e8:b2:ac:f5:69:
        d6:e8:56:3f:24:6c:e4:db:2b:c7:32:45:3e:58:2c:45:18:7e:
        63:57:61:7b:bf:d1:27:d3:b6:1a:53:f6:83:c3:9c:3b:b6:6b:
        87:ca:10:4c:0e:03:d1:ae:5b:50:6a:92:a2:4b:94:40:be:4e:
        5f:c1:38:58:00:f7:e0:90:04:5f:08:0b:27:5c:42:cb:19:ac:
        d5:bd:eb:76:b7:88:85:d1:ca:72:13:e2:b4:6b:8d:ac:c7:ce:
        2f:9c:11:4d:27:13:58:61:bf:e4:9f:f5:f7:3d:e4:02:23:c9:
        9e:cc:08:83:82:5c:0f:d9:1c:06:77:21:0b:ad:05:e6:85:6d:
        a7:b3:20:b0:c2:15:14:0e:af:26:6d:84:5d:96:3f:a5:94:1d:
        c4:9a:1c:16:1b:98:b2:d6:18:d8:cf:f6:8c:bc:cc:75:1b:08:
        8d:42:15:79:07:bf:43:54:a5:30:6b:41:7d:f6:7d:e1:ac:37:
        4f:20:3b:46:bf:7d:40:88:83:00:1a:84:97:b3:fc:f4:3b:de:
        08:cf:8f:01:43:74:88:8d:6e:9d:be:60:5b:e2:90:f1:05:6c:
        e1:41:9e:70:3e:d3:61:03:58:83:b4:44:c2:02:03:b4:23:0f:
        55:c4:12:3c:ec:19:99:0e:8e:89:45:f5:87:02:41:0f:2c:6a:
        c0:11:dc:9d:10:d8:dd:35:a9:15:5d:51:cb:6a:57:1a:15:6c:
        b4:cb:3e:07:b8:fc:b3:f9:35:2a:70:10:67:06:2d:ec:89:42:
        94:a1:3e:eb:0a:ba:b7:1d:d5:18:17:5c:52:e2:a8:f5:e8:61:
        0e:0c:a8:fc:e3:4a:de:24:0c:d7:36:d5:7d:3b:a0:b0:d4:95:
        fe:ad:c3:78:d5:a7:37:cc:d4:b2:14:9d:ba:20:cc:54:52:81:
        ab:a7:7f:87:f4:bd:01:50:9c:fb:10:a3:6b:74:4b:a2:5f:95:
        3a:ea:12:7e:ce:bb:53:f6:07:e3:52:b1:32:00:ba:a3:25:1f:
        9f:cf:0e:aa:de:7b:e8:f6:21:d6:06:e7:8b:9c:7b:60:bb:70:
        74:a2:94:42:18:ad:86:6c:e5:ba:72:4e:5f:44:a3:12:be:10:
        cf:8e:d1:db:23:91:78:38:6a:35:4d:d5:43:4d:b5:71:50:97:
        bc:97:04:47:32:1d:93:1c
-----BEGIN CERTIFICATE-----
MIIE5DCCAsygAwIBAgIBCTANBgkqhkiG9w0BAQUFADCBqTELMAkGA1UEBhMCREUx
DzANBgNVBAgTBkJlcmxpbjEPMA0GA1UEBxMGQmVybGluMRQwEgYDVQQKEwtFeGFt
cGxlIENvbTETMBEGA1UECxMKT3BlcmF0aW9uczEmMCQGA1UEAxMdQ2VydGlmaWNh
dGUgU2lnbmluZyBBdXRob3JpdHkxJTAjBgkqhkiG9w0BCQEWFmhvc3RtYXN0ZXJA
ZXhhbXBsZS5jb20wHhcNMTIwMzE1MTA0NTM2WhcNMTMwMzE1MTA0NTM2WjByMQsw
CQYDVQQGEwJERTEPMA0GA1UECBMGQmVybGluMQ8wDQYDVQQHEwZCZXJsaW4xFDAS
BgNVBAoTC0V4YW1wbGUgQ29tMRMwEQYDVQQLEwpPcGVyYXRpb25zMRYwFAYDVQQD
Ew1rYW5iYW5lcm8uY29tMIIBIjANBgkqhkiG9w0BAQEFAAOCAQ8AMIIBCgKCAQEA
quZpqvKMnFheXMlPYXc6CU8vIBSHe9KyDrPCfZVh+M9LPRn/xCfD5xDamRyMtTcM
7YWXvV4rqYzQS1mjZm8tqn6INGJhab/8YUlNQbZIqTHCrSxnjaruBqT0TqIjqkMZ
5lUy2KF+Ymz8wO0mqCJYBG0bar6yYBIyakUjJo8+CBdnk4vw1/TsgaAhlwoJ6kZG
I2dcTX8rKI92mtm4RnH2jHIGAluC92bSnPSkXoiSRQ0Eu9FL1tAqAaRnDY3hrws6
exxptsgGTgp31dKKWXNGScnH4zPX70rbiRWugVW+QyX0oWsGN8xjLtLfiuWEzro8
OXyEBBm0gzUSIMxYinkIiwIDAQABo00wSzAJBgNVHRMEAjAAMB0GA1UdDgQWBBQP
JB2KdhEfxkV1ctX+XlRjjVUi+zAfBgNVHSMEGDAWgBRQM+a/TbNmqiaXBpvbVyTf
wUlm4zANBgkqhkiG9w0BAQUFAAOCAgEAWwcPnYFFdem1JnPgHxxFVx0+nhSPwCe4
YOkfC09aOdMpoyRs/Ljq02b+ZdQ5XIbg4vY+4cnv8J4dVGxDxfHP1CDzqeiyrPVp
1uhWPyRs5NsrxzJFPlgsRRh+Y1dhe7/RJ9O2GlP2g8OcO7Zrh8oQTA4D0a5bUGqS
okuUQL5OX8E4WAD34JAEXwgLJ1xCyxms1b3rdreIhdHKchPitGuNrMfOL5wRTScT
WGG/5J/19z3kAiPJnswIg4JcD9kcBnchC60F5oVtp7MgsMIVFA6vJm2EXZY/pZQd
xJocFhuYstYY2M/2jLzMdRsIjUIVeQe/Q1SlMGtBffZ94aw3TyA7Rr99QIiDABqE
l7P89DveCM+PAUN0iI1unb5gW+KQ8QVs4UGecD7TYQNYg7REwgIDtCMPVcQSPOwZ
mQ6OiUX1hwJBDyxqwBHcnRDY3TWpFV1Ry2pXGhVstMs+B7j8s/k1KnAQZwYt7IlC
lKE+6wq6tx3VGBdcUuKo9ehhDgyo/ONK3iQM1zbVfTugsNSV/q3DeNWnN8zUshSd
uiDMVFKBq6d/h/S9AVCc+xCja3RLol+VOuoSfs67U/YH41KxMgC6oyUfn88Oqt57
6PYh1gbni5x7YLtwdKKUQhithmzlunJOX0SjEr4Qz47R2yOReDhqNU3VQ021cVCX
vJcERzIdkxw=
-----END CERTIFICATE-----
