Certificate:
    Data:
        Version: 3 (0x2)
        Serial Number: 10 (0xa)
    Signature Algorithm: sha1WithRSAEncryption
        Issuer: C=DE, ST=Berlin, L=Berlin, O=ZenOps, OU=Operations, CN=Certificate Signing Authority/emailAddress=hostmaster@zenops.de
        Validity
            Not Before: Mar  9 09:53:58 2013 GMT
            Not After : Mar  9 09:53:58 2014 GMT
        Subject: C=DE, ST=Berlin, L=Berlin, O=ZenOps, OU=Operations, CN=staging.kanbanero.net
        Subject Public Key Info:
            Public Key Algorithm: rsaEncryption
                Public-Key: (2048 bit)
                Modulus:
                    00:c8:57:0b:0e:96:a7:9a:2e:3a:1d:e6:83:f4:b0:
                    98:8a:e4:e5:35:d0:71:5c:6c:58:be:88:34:c6:f1:
                    c6:4b:e8:aa:45:10:0d:07:b0:62:81:0d:3d:3f:62:
                    ae:f5:8f:12:68:19:94:4b:7e:ce:4e:0a:46:85:36:
                    be:83:a3:6f:ab:b2:10:8a:c0:05:d0:69:e3:1b:55:
                    67:95:4b:b9:c0:33:92:e1:ff:27:c7:78:dd:48:a0:
                    6c:c9:8c:76:e1:8a:9d:3a:f7:33:46:24:9d:7a:a5:
                    d3:4c:c5:da:71:b7:14:7d:c0:00:a0:aa:2a:6a:dd:
                    a7:c8:50:72:e0:cf:d3:db:c7:2a:28:24:a7:45:1e:
                    38:d5:fb:83:4a:7d:07:7d:68:74:ff:2c:09:a0:be:
                    2d:8e:ff:6a:27:35:92:08:21:d1:0c:57:ce:08:a9:
                    f2:4c:9e:e3:1b:f6:c2:4d:07:20:84:6d:18:9e:2b:
                    04:b5:cb:51:2e:d3:fe:5c:ed:13:4b:1f:7a:d2:e2:
                    99:ae:6a:71:55:89:d4:99:10:f6:fc:6a:b6:3a:ef:
                    11:50:80:da:b1:ab:48:08:e9:70:24:32:c3:3b:74:
                    e6:ac:07:e8:23:19:d8:c8:8f:09:76:ed:4d:95:9a:
                    af:cb:07:64:11:ae:62:6c:bb:4f:2f:50:50:37:bc:
                    48:55
                Exponent: 65537 (0x10001)
        X509v3 extensions:
            X509v3 Basic Constraints: 
                CA:FALSE
            X509v3 Subject Key Identifier: 
                43:BA:0B:61:98:2A:CA:D9:7E:02:56:35:10:9E:A9:F6:C0:B3:B0:80
            X509v3 Authority Key Identifier: 
                keyid:4F:4D:64:16:D3:0B:30:0C:96:E3:86:E8:D2:0F:68:20:CF:D0:DC:CD

    Signature Algorithm: sha1WithRSAEncryption
         31:84:9b:83:03:b1:cf:cf:c0:10:59:f9:55:c0:7a:af:7b:c3:
         9c:7e:96:ff:46:39:6a:3d:69:f6:25:97:73:67:f2:af:06:d0:
         d7:9f:35:06:61:ed:a1:dd:96:7e:80:97:fe:14:3a:5e:e9:a2:
         fa:4d:d4:b7:49:36:06:77:7b:67:7a:1c:ee:91:e4:31:13:b6:
         c7:c7:4c:71:fa:72:a6:bc:f0:ed:3e:03:69:70:43:f8:71:b5:
         e5:2b:d4:79:00:6c:4f:e0:e9:30:30:19:1f:90:1b:f9:a3:76:
         ef:3a:94:af:4f:3c:15:a4:c2:5f:05:1a:f8:6e:e8:42:2a:36:
         3a:a4:d5:c8:e1:5e:a0:47:0e:4d:48:b6:13:9f:af:4a:a3:1c:
         ca:1e:13:55:0c:df:bf:67:5f:77:0c:ef:ac:3b:dd:b8:b1:41:
         05:b3:5a:3f:50:2f:89:d3:f7:e2:87:63:22:82:35:56:d6:bd:
         23:01:35:80:ea:29:94:6c:ed:c7:a7:c2:c8:fd:e8:db:2a:f6:
         59:9c:56:41:2f:ad:95:02:37:db:0b:2c:0d:1f:70:88:86:22:
         d0:34:35:fd:22:c4:fd:2f:f5:ac:cf:10:65:4f:dd:dc:21:5c:
         a7:7a:a1:b8:6b:43:9d:70:97:88:52:a3:42:65:4b:8f:27:4f:
         17:33:56:cd:e2:cc:92:81:f3:d4:f0:1b:b9:22:0f:86:df:9f:
         a3:02:cc:da:ea:7f:0a:3f:19:fb:2c:e7:33:fb:b8:5f:69:a0:
         87:70:1c:55:75:af:8c:5c:93:14:3c:35:73:79:58:db:c9:86:
         62:44:b2:8d:01:3c:f4:06:54:8b:78:88:3a:41:ba:2f:c1:02:
         a8:eb:bc:91:7f:8e:a5:79:c6:e4:9f:c4:55:7c:19:f1:69:2b:
         c0:16:e9:af:a0:22:74:4a:6e:d0:32:e9:67:4f:d4:fa:63:c7:
         c7:0d:23:d3:62:18:35:d8:fc:0b:43:20:5b:56:b1:25:28:d9:
         6f:9d:1e:eb:b7:dc:8a:9f:57:d1:e8:9e:a7:8b:56:f1:4a:7d:
         30:36:07:8e:76:f8:f9:5c:06:84:77:28:0a:b6:3c:1d:90:4e:
         20:25:90:df:46:64:3b:c8:7f:50:bc:47:2a:3b:6a:ce:b5:b2:
         54:29:ea:ed:2b:15:9d:7a:b9:e3:3e:9f:13:e1:8a:78:47:1e:
         47:9b:a5:63:be:b4:c9:25:e4:24:fc:e1:50:1e:10:29:79:cd:
         c1:0c:c9:d3:57:9b:f6:89:81:e3:d9:3b:2b:58:5a:9b:35:22:
         a8:66:89:ed:0b:c9:e5:cd:04:14:8f:11:45:d2:8b:df:25:56:
         75:e4:1c:7a:02:80:aa:32
-----BEGIN CERTIFICATE-----
MIIE4DCCAsigAwIBAgIBCjANBgkqhkiG9w0BAQUFADCBojELMAkGA1UEBhMCREUx
DzANBgNVBAgTBkJlcmxpbjEPMA0GA1UEBxMGQmVybGluMQ8wDQYDVQQKEwZaZW5P
cHMxEzARBgNVBAsTCk9wZXJhdGlvbnMxJjAkBgNVBAMTHUNlcnRpZmljYXRlIFNp
Z25pbmcgQXV0aG9yaXR5MSMwIQYJKoZIhvcNAQkBFhRob3N0bWFzdGVyQHplbm9w
cy5kZTAeFw0xMzAzMDkwOTUzNThaFw0xNDAzMDkwOTUzNThaMHUxCzAJBgNVBAYT
AkRFMQ8wDQYDVQQIEwZCZXJsaW4xDzANBgNVBAcTBkJlcmxpbjEPMA0GA1UEChMG
WmVuT3BzMRMwEQYDVQQLEwpPcGVyYXRpb25zMR4wHAYDVQQDExVzdGFnaW5nLmth
bmJhbmVyby5uZXQwggEiMA0GCSqGSIb3DQEBAQUAA4IBDwAwggEKAoIBAQDIVwsO
lqeaLjod5oP0sJiK5OU10HFcbFi+iDTG8cZL6KpFEA0HsGKBDT0/Yq71jxJoGZRL
fs5OCkaFNr6Do2+rshCKwAXQaeMbVWeVS7nAM5Lh/yfHeN1IoGzJjHbhip069zNG
JJ16pdNMxdpxtxR9wACgqipq3afIUHLgz9PbxyooJKdFHjjV+4NKfQd9aHT/LAmg
vi2O/2onNZIIIdEMV84IqfJMnuMb9sJNByCEbRieKwS1y1Eu0/5c7RNLH3rS4pmu
anFVidSZEPb8arY67xFQgNqxq0gI6XAkMsM7dOasB+gjGdjIjwl27U2Vmq/LB2QR
rmJsu08vUFA3vEhVAgMBAAGjTTBLMAkGA1UdEwQCMAAwHQYDVR0OBBYEFEO6C2GY
KsrZfgJWNRCeqfbAs7CAMB8GA1UdIwQYMBaAFE9NZBbTCzAMluOG6NIPaCDP0NzN
MA0GCSqGSIb3DQEBBQUAA4ICAQAxhJuDA7HPz8AQWflVwHqve8Ocfpb/RjlqPWn2
JZdzZ/KvBtDXnzUGYe2h3ZZ+gJf+FDpe6aL6TdS3STYGd3tnehzukeQxE7bHx0xx
+nKmvPDtPgNpcEP4cbXlK9R5AGxP4OkwMBkfkBv5o3bvOpSvTzwVpMJfBRr4buhC
KjY6pNXI4V6gRw5NSLYTn69KoxzKHhNVDN+/Z193DO+sO924sUEFs1o/UC+J0/fi
h2MigjVW1r0jATWA6imUbO3Hp8LI/ejbKvZZnFZBL62VAjfbCywNH3CIhiLQNDX9
IsT9L/WszxBlT93cIVyneqG4a0OdcJeIUqNCZUuPJ08XM1bN4sySgfPU8Bu5Ig+G
35+jAsza6n8KPxn7LOcz+7hfaaCHcBxVda+MXJMUPDVzeVjbyYZiRLKNATz0BlSL
eIg6QbovwQKo67yRf46lecbkn8RVfBnxaSvAFumvoCJ0Sm7QMulnT9T6Y8fHDSPT
Yhg12PwLQyBbVrElKNlvnR7rt9yKn1fR6J6ni1bxSn0wNgeOdvj5XAaEdygKtjwd
kE4gJZDfRmQ7yH9QvEcqO2rOtbJUKertKxWdernjPp8T4Yp4Rx5Hm6VjvrTJJeQk
/OFQHhApec3BDMnTV5v2iYHj2TsrWFqbNSKoZontC8nlzQQUjxFF0ovfJVZ15Bx6
AoCqMg==
-----END CERTIFICATE-----
