Certificate:
    Data:
        Version: 3 (0x2)
        Serial Number: 11 (0xb)
    Signature Algorithm: sha1WithRSAEncryption
        Issuer: C=DE, ST=Berlin, L=Berlin, O=ZenOps, OU=Operations, CN=Certificate Signing Authority/emailAddress=hostmaster@zenops.de
        Validity
            Not Before: Mar  9 09:53:59 2013 GMT
            Not After : Mar  9 09:53:59 2014 GMT
        Subject: C=DE, ST=Berlin, L=Berlin, O=ZenOps, OU=Operations, CN=web1.schilder-versand.com
        Subject Public Key Info:
            Public Key Algorithm: rsaEncryption
                Public-Key: (2048 bit)
                Modulus:
                    00:ad:70:e7:3f:a5:18:80:a9:94:75:9b:37:06:a0:
                    c8:ab:1b:fc:14:2c:89:df:a6:02:f5:dd:a5:f6:2d:
                    4f:4a:50:8a:1a:41:74:21:b4:66:5e:01:91:9c:73:
                    5f:6c:5c:a0:f2:0f:37:39:f3:c9:68:62:ef:43:04:
                    d3:87:0c:8d:8a:fc:9f:e5:39:73:7e:c2:91:50:35:
                    9c:bb:37:e0:55:0b:e3:ba:be:1a:21:e9:49:f6:1e:
                    5a:48:6f:16:aa:a5:6e:ac:3d:c5:9c:14:bf:5f:b6:
                    00:fa:b0:4f:d6:06:22:68:7c:e3:3e:95:fd:fd:15:
                    60:24:ef:29:f2:19:16:7a:e6:ad:b4:e5:42:98:7d:
                    11:60:d1:3d:16:cf:25:c6:cc:3b:ee:e4:92:5a:ec:
                    30:07:71:da:cb:96:36:5f:40:ba:1e:23:c9:3a:41:
                    4b:d6:f2:b3:aa:9b:59:7e:d4:84:53:0f:6e:2d:07:
                    da:fe:ec:91:75:e5:93:8e:a8:82:42:12:26:59:12:
                    2b:bc:d6:5b:ff:86:00:5b:ed:f5:8c:ae:c6:d3:a2:
                    a5:fa:8f:b6:64:77:7d:8c:d4:84:9c:7c:56:14:d4:
                    67:74:c1:9b:a1:e8:aa:86:b2:f2:83:32:1a:37:9a:
                    3f:52:28:9c:9b:29:16:ff:89:5d:70:d2:0c:da:c5:
                    47:bd
                Exponent: 65537 (0x10001)
        X509v3 extensions:
            X509v3 Basic Constraints: 
                CA:FALSE
            X509v3 Subject Key Identifier: 
                8B:C2:E2:58:00:69:BC:8C:C9:E3:72:FC:EA:DA:81:1A:72:AF:95:A5
            X509v3 Authority Key Identifier: 
                keyid:4F:4D:64:16:D3:0B:30:0C:96:E3:86:E8:D2:0F:68:20:CF:D0:DC:CD

    Signature Algorithm: sha1WithRSAEncryption
         47:16:3b:1f:9f:71:a8:36:6b:77:25:da:93:2b:21:12:70:b0:
         38:aa:72:31:14:66:1b:77:23:2f:1e:ab:74:56:aa:66:6c:bd:
         d2:2f:c0:be:cb:f4:fd:ce:b0:a8:cc:d5:db:ff:b4:1e:b5:95:
         0f:8b:41:eb:22:50:14:c3:41:39:fe:64:9d:a9:b1:ec:b1:be:
         17:39:ad:31:ad:95:e8:1e:00:52:50:62:e5:91:37:2c:04:e2:
         75:8f:01:81:96:f0:9d:ee:96:42:c5:b5:c4:9c:d1:70:e9:65:
         cc:94:b1:de:cf:84:3f:c9:21:3f:7d:09:c4:af:ef:9c:02:da:
         93:4a:d2:1a:ab:8d:61:1a:e3:f1:e3:38:54:9a:0d:5b:d6:9e:
         61:c9:ee:52:b5:d9:44:e8:e9:ae:8c:4f:7f:2e:0d:5a:ce:c7:
         9a:59:bb:55:32:64:4d:69:28:a5:e3:09:7e:91:7b:9e:c9:eb:
         65:6d:06:06:9d:58:de:b0:ef:69:a2:8b:90:81:d6:29:56:8a:
         00:38:48:1a:65:1b:6e:22:d0:0d:46:73:a6:51:14:f6:82:12:
         da:cc:47:01:85:c9:5a:79:f0:b7:90:81:5f:96:24:9f:84:18:
         e7:60:28:dc:76:92:97:50:ca:c4:70:87:24:d7:3d:de:41:41:
         ac:85:21:db:41:d6:6f:ce:c7:b8:a4:60:54:05:4a:75:57:fa:
         57:34:22:b5:9a:d4:d3:82:1e:b1:68:e8:90:38:5b:72:cc:bc:
         c2:65:21:4e:d7:55:32:4b:8c:7e:a4:27:72:35:28:ab:86:c2:
         54:a4:d4:45:18:e6:91:ea:a3:3b:14:e4:72:4d:14:05:24:f1:
         9b:b0:7c:2a:89:89:d0:ae:f7:87:64:3a:3d:5d:72:9c:c0:ba:
         27:21:6d:0b:b4:36:01:d2:dd:51:37:3c:98:2f:fe:96:62:32:
         cc:b1:3d:db:0d:61:23:ea:e0:88:20:7b:23:98:c4:25:da:22:
         84:2f:ae:08:9f:ad:b8:93:6d:19:be:c2:a8:52:fb:a2:7f:17:
         4c:3e:33:80:94:d8:53:18:9f:f1:1b:3a:4d:22:9d:b8:67:77:
         d6:5d:12:9c:c0:1d:9a:e4:79:6d:44:ae:b3:02:a0:ad:54:1c:
         84:00:88:6b:74:07:05:fa:e4:e2:36:7d:e6:cc:89:3f:37:1d:
         19:20:d1:a5:a1:20:8e:e5:2d:65:d8:f6:20:57:ff:e2:ee:60:
         1b:3b:4a:69:1a:18:fd:4a:7b:11:40:1d:be:ac:19:06:3b:de:
         c1:d7:9c:c9:ba:57:c2:0f:52:c2:1f:a2:5a:ac:9c:d2:4f:78:
         75:6c:80:6b:44:ea:c3:c7
-----BEGIN CERTIFICATE-----
MIIE5DCCAsygAwIBAgIBCzANBgkqhkiG9w0BAQUFADCBojELMAkGA1UEBhMCREUx
DzANBgNVBAgTBkJlcmxpbjEPMA0GA1UEBxMGQmVybGluMQ8wDQYDVQQKEwZaZW5P
cHMxEzARBgNVBAsTCk9wZXJhdGlvbnMxJjAkBgNVBAMTHUNlcnRpZmljYXRlIFNp
Z25pbmcgQXV0aG9yaXR5MSMwIQYJKoZIhvcNAQkBFhRob3N0bWFzdGVyQHplbm9w
cy5kZTAeFw0xMzAzMDkwOTUzNTlaFw0xNDAzMDkwOTUzNTlaMHkxCzAJBgNVBAYT
AkRFMQ8wDQYDVQQIEwZCZXJsaW4xDzANBgNVBAcTBkJlcmxpbjEPMA0GA1UEChMG
WmVuT3BzMRMwEQYDVQQLEwpPcGVyYXRpb25zMSIwIAYDVQQDExl3ZWIxLnNjaGls
ZGVyLXZlcnNhbmQuY29tMIIBIjANBgkqhkiG9w0BAQEFAAOCAQ8AMIIBCgKCAQEA
rXDnP6UYgKmUdZs3BqDIqxv8FCyJ36YC9d2l9i1PSlCKGkF0IbRmXgGRnHNfbFyg
8g83OfPJaGLvQwTThwyNivyf5TlzfsKRUDWcuzfgVQvjur4aIelJ9h5aSG8WqqVu
rD3FnBS/X7YA+rBP1gYiaHzjPpX9/RVgJO8p8hkWeuattOVCmH0RYNE9Fs8lxsw7
7uSSWuwwB3Hay5Y2X0C6HiPJOkFL1vKzqptZftSEUw9uLQfa/uyRdeWTjqiCQhIm
WRIrvNZb/4YAW+31jK7G06Kl+o+2ZHd9jNSEnHxWFNRndMGboeiqhrLygzIaN5o/
UiicmykW/4ldcNIM2sVHvQIDAQABo00wSzAJBgNVHRMEAjAAMB0GA1UdDgQWBBSL
wuJYAGm8jMnjcvzq2oEacq+VpTAfBgNVHSMEGDAWgBRPTWQW0wswDJbjhujSD2gg
z9DczTANBgkqhkiG9w0BAQUFAAOCAgEARxY7H59xqDZrdyXakyshEnCwOKpyMRRm
G3cjLx6rdFaqZmy90i/Avsv0/c6wqMzV2/+0HrWVD4tB6yJQFMNBOf5knamx7LG+
FzmtMa2V6B4AUlBi5ZE3LATidY8BgZbwne6WQsW1xJzRcOllzJSx3s+EP8khP30J
xK/vnALak0rSGquNYRrj8eM4VJoNW9aeYcnuUrXZROjproxPfy4NWs7Hmlm7VTJk
TWkopeMJfpF7nsnrZW0GBp1Y3rDvaaKLkIHWKVaKADhIGmUbbiLQDUZzplEU9oIS
2sxHAYXJWnnwt5CBX5Ykn4QY52Ao3HaSl1DKxHCHJNc93kFBrIUh20HWb87HuKRg
VAVKdVf6VzQitZrU04IesWjokDhbcsy8wmUhTtdVMkuMfqQncjUoq4bCVKTURRjm
keqjOxTkck0UBSTxm7B8KomJ0K73h2Q6PV1ynMC6JyFtC7Q2AdLdUTc8mC/+lmIy
zLE92w1hI+rgiCB7I5jEJdoihC+uCJ+tuJNtGb7CqFL7on8XTD4zgJTYUxif8Rs6
TSKduGd31l0SnMAdmuR5bUSuswKgrVQchACIa3QHBfrk4jZ95syJPzcdGSDRpaEg
juUtZdj2IFf/4u5gGztKaRoY/Up7EUAdvqwZBjvewdecybpXwg9Swh+iWqyc0k94
dWyAa0Tqw8c=
-----END CERTIFICATE-----
