Certificate:
    Data:
        Version: 3 (0x2)
        Serial Number: 11 (0xb)
        Signature Algorithm: sha1WithRSAEncryption
        Issuer: C=DE, ST=Berlin, L=Berlin, O=Example Com, OU=Operations, CN=Certificate Signing Authority/emailAddress=hostmaster@example.com
        Validity
            Not Before: Mar 15 14:32:45 2012 GMT
            Not After : Mar 15 14:32:45 2013 GMT
        Subject: C=DE, ST=Berlin, L=Berlin, O=Example Com, OU=Operations, CN=test.chariteam.de
        Subject Public Key Info:
            Public Key Algorithm: rsaEncryption
                Public-Key: (2048 bit)
                Modulus:
                    00:be:6e:45:95:25:ab:34:f4:5b:2c:d9:e0:cb:0a:
                    e0:a3:de:f3:2a:ec:7c:00:e3:8a:5c:4d:20:f9:bc:
                    fa:2b:be:b0:4a:28:e4:c6:96:8e:f7:ba:8f:ce:41:
                    ee:15:c3:57:27:af:4c:d6:5f:d0:8b:3f:8b:01:cb:
                    1b:94:4f:e7:1d:26:84:78:94:0f:03:73:d9:87:e5:
                    28:37:ab:31:92:b8:3c:29:18:77:92:53:d2:0d:42:
                    36:23:94:db:e6:28:8c:35:20:1e:22:3f:68:3d:9f:
                    61:cf:9e:2e:4b:8f:af:b4:60:5d:2a:24:b7:c7:d8:
                    4d:69:63:8c:48:19:01:f6:c4:3f:61:ca:30:eb:e3:
                    2f:78:07:20:fe:72:ce:08:f7:16:5a:31:01:77:54:
                    0b:51:06:90:41:e6:78:76:e4:26:98:e8:c8:13:56:
                    23:6d:cf:12:9b:22:d1:3b:c3:44:d9:69:73:26:75:
                    af:7f:cf:6d:16:e5:51:fd:28:a3:c5:00:10:03:d4:
                    fd:f7:86:d1:d3:4e:03:73:c1:45:29:20:d1:38:dc:
                    33:e5:24:f4:ae:fd:2f:5e:46:83:7a:fa:d1:8a:42:
                    f1:84:82:f8:c8:71:11:d5:90:6e:ba:4a:59:6e:51:
                    5f:75:62:5b:60:5b:f0:7e:8d:0d:ab:b0:5c:9b:f5:
                    83:cd
                Exponent: 65537 (0x10001)
        X509v3 extensions:
            X509v3 Basic Constraints: 
                CA:FALSE
            X509v3 Subject Key Identifier: 
                3B:13:83:FD:7C:B1:54:08:D6:18:7C:D0:75:24:6D:6C:4B:D2:57:93
            X509v3 Authority Key Identifier: 
                keyid:50:33:E6:BF:4D:B3:66:AA:26:97:06:9B:DB:57:24:DF:C1:49:66:E3

    Signature Algorithm: sha1WithRSAEncryption
        24:bb:03:af:92:86:53:01:d9:60:12:9c:d4:0f:18:24:70:76:
        b1:7d:ba:d2:7d:f5:4e:f1:63:b2:f2:34:5a:4e:e6:79:6e:05:
        db:4c:79:8f:40:76:14:f0:d1:96:6b:7a:58:f2:78:f7:23:5f:
        ce:20:ac:5c:16:80:18:dc:3b:3a:8b:00:8e:06:1a:a0:02:1a:
        fd:7a:8a:e1:d3:10:b2:75:a0:ea:26:e6:cf:cd:9a:4f:46:d4:
        c0:db:d6:fb:a1:6a:15:4c:11:90:d1:57:f2:f3:6d:16:c4:e8:
        ba:8e:ed:58:3f:ac:24:32:29:a2:3c:02:1b:60:be:f9:76:c7:
        1f:68:a2:b7:7d:c0:b0:89:87:a1:d5:60:3a:eb:88:81:06:87:
        b6:0c:f7:3c:4f:05:e6:33:56:3c:68:89:4c:a8:fc:11:6c:1c:
        a2:dc:a2:55:c3:87:53:09:c7:d1:38:60:3b:c0:5f:e7:b0:a9:
        a2:da:7f:06:57:6c:9b:83:76:9a:fd:04:de:0d:39:98:8f:49:
        fe:32:6e:cb:4d:26:a2:6f:93:87:3f:2b:39:1f:13:46:54:65:
        12:1e:25:0e:e0:f5:62:c7:5f:e4:ce:dc:a4:bb:d0:43:60:a8:
        a4:e4:2d:92:ad:98:08:28:18:65:b5:98:c4:8b:72:6e:25:c9:
        4c:88:0e:e9:4c:47:3c:4f:88:65:f4:87:ea:54:8d:55:3c:2a:
        73:eb:f3:72:91:2c:80:93:5b:2d:e2:d0:9e:f2:f4:41:40:6c:
        a0:f7:0b:81:5a:f3:15:47:92:ec:74:fa:de:43:3f:7b:32:7c:
        6f:ab:65:98:76:6f:ac:4b:bd:bf:f1:1a:fa:55:b2:54:72:1f:
        fa:c8:06:b4:1d:bc:57:13:78:4a:18:d8:77:7c:9b:9f:5d:03:
        d1:26:d8:98:a7:d6:76:19:ff:21:1c:05:72:91:a5:7d:6e:72:
        94:04:57:af:08:a8:d2:61:a3:5c:fd:ef:ea:6b:41:b6:a7:04:
        e0:b1:03:e8:6f:50:42:18:6e:49:22:19:62:91:34:42:7b:90:
        fc:fb:19:37:98:b8:b5:51:f6:f5:a0:54:8e:ba:e3:f1:d8:c0:
        ef:c7:5f:36:41:83:ba:b4:e6:c2:36:90:5e:54:76:50:c0:25:
        18:67:f2:64:41:5d:7f:89:3c:34:18:75:fe:8c:58:76:9b:a5:
        e3:5a:e4:aa:94:e1:44:1d:f3:d3:03:67:10:3f:b7:8f:46:11:
        1d:cb:07:16:e8:a0:6d:de:30:f3:69:1f:56:f8:e5:d9:fc:ee:
        02:ea:9b:5e:2d:7d:8e:b9:4b:16:18:7d:b9:aa:b0:29:4e:88:
        57:a0:91:1d:ef:45:1e:ca
-----BEGIN CERTIFICATE-----
MIIE6DCCAtCgAwIBAgIBCzANBgkqhkiG9w0BAQUFADCBqTELMAkGA1UEBhMCREUx
DzANBgNVBAgTBkJlcmxpbjEPMA0GA1UEBxMGQmVybGluMRQwEgYDVQQKEwtFeGFt
cGxlIENvbTETMBEGA1UECxMKT3BlcmF0aW9uczEmMCQGA1UEAxMdQ2VydGlmaWNh
dGUgU2lnbmluZyBBdXRob3JpdHkxJTAjBgkqhkiG9w0BCQEWFmhvc3RtYXN0ZXJA
ZXhhbXBsZS5jb20wHhcNMTIwMzE1MTQzMjQ1WhcNMTMwMzE1MTQzMjQ1WjB2MQsw
CQYDVQQGEwJERTEPMA0GA1UECBMGQmVybGluMQ8wDQYDVQQHEwZCZXJsaW4xFDAS
BgNVBAoTC0V4YW1wbGUgQ29tMRMwEQYDVQQLEwpPcGVyYXRpb25zMRowGAYDVQQD
ExF0ZXN0LmNoYXJpdGVhbS5kZTCCASIwDQYJKoZIhvcNAQEBBQADggEPADCCAQoC
ggEBAL5uRZUlqzT0WyzZ4MsK4KPe8yrsfADjilxNIPm8+iu+sEoo5MaWjve6j85B
7hXDVyevTNZf0Is/iwHLG5RP5x0mhHiUDwNz2YflKDerMZK4PCkYd5JT0g1CNiOU
2+YojDUgHiI/aD2fYc+eLkuPr7RgXSokt8fYTWljjEgZAfbEP2HKMOvjL3gHIP5y
zgj3FloxAXdUC1EGkEHmeHbkJpjoyBNWI23PEpsi0TvDRNlpcyZ1r3/PbRblUf0o
o8UAEAPU/feG0dNOA3PBRSkg0TjcM+Uk9K79L15Gg3r60YpC8YSC+MhxEdWQbrpK
WW5RX3ViW2Bb8H6NDauwXJv1g80CAwEAAaNNMEswCQYDVR0TBAIwADAdBgNVHQ4E
FgQUOxOD/XyxVAjWGHzQdSRtbEvSV5MwHwYDVR0jBBgwFoAUUDPmv02zZqomlwab
21ck38FJZuMwDQYJKoZIhvcNAQEFBQADggIBACS7A6+ShlMB2WASnNQPGCRwdrF9
utJ99U7xY7LyNFpO5nluBdtMeY9AdhTw0ZZreljyePcjX84grFwWgBjcOzqLAI4G
GqACGv16iuHTELJ1oOom5s/Nmk9G1MDb1vuhahVMEZDRV/LzbRbE6LqO7Vg/rCQy
KaI8Ahtgvvl2xx9oord9wLCJh6HVYDrriIEGh7YM9zxPBeYzVjxoiUyo/BFsHKLc
olXDh1MJx9E4YDvAX+ewqaLafwZXbJuDdpr9BN4NOZiPSf4ybstNJqJvk4c/Kzkf
E0ZUZRIeJQ7g9WLHX+TO3KS70ENgqKTkLZKtmAgoGGW1mMSLcm4lyUyIDulMRzxP
iGX0h+pUjVU8KnPr83KRLICTWy3i0J7y9EFAbKD3C4Fa8xVHkux0+t5DP3syfG+r
ZZh2b6xLvb/xGvpVslRyH/rIBrQdvFcTeEoY2Hd8m59dA9Em2Jin1nYZ/yEcBXKR
pX1ucpQEV68IqNJho1z97+prQbanBOCxA+hvUEIYbkkiGWKRNEJ7kPz7GTeYuLVR
9vWgVI664/HYwO/HXzZBg7q05sI2kF5UdlDAJRhn8mRBXX+JPDQYdf6MWHabpeNa
5KqU4UQd89MDZxA/t49GER3LBxbooG3eMPNpH1b45dn87gLqm14tfY65SxYYfbmq
sClOiFegkR3vRR7K
-----END CERTIFICATE-----
