Certificate:
    Data:
        Version: 3 (0x2)
        Serial Number: 12 (0xc)
    Signature Algorithm: sha1WithRSAEncryption
        Issuer: C=DE, ST=Berlin, L=Berlin, O=ZenOps, OU=Operations, CN=Certificate Signing Authority/emailAddress=hostmaster@zenops.de
        Validity
            Not Before: Mar  9 09:54:00 2013 GMT
            Not After : Mar  9 09:54:00 2014 GMT
        Subject: C=DE, ST=Berlin, L=Berlin, O=ZenOps, OU=Operations, CN=zeus.xnull.de
        Subject Public Key Info:
            Public Key Algorithm: rsaEncryption
                Public-Key: (2048 bit)
                Modulus:
                    00:ea:10:31:5a:4a:f4:a7:2f:ec:40:e3:6d:15:3d:
                    a7:13:4c:a0:67:86:ab:a6:41:ef:3a:03:9e:c4:38:
                    fc:65:86:16:3b:26:19:91:1c:a3:c0:4f:6f:6b:0d:
                    99:0b:53:69:6e:66:cb:43:17:cf:d8:8d:96:e3:a4:
                    ac:ca:dc:6d:4c:b6:ac:f7:94:a9:3a:f3:9e:95:39:
                    ff:c8:0a:89:a4:62:68:6f:c9:f4:dd:80:5d:e5:05:
                    d8:f8:5b:c7:78:14:a0:43:f0:a6:6a:d6:9a:fa:da:
                    77:c7:e8:4d:6c:63:19:99:14:0b:8f:69:fd:ba:4d:
                    f7:02:9a:55:2f:ca:a7:99:e6:3d:2b:2f:43:7b:c0:
                    8d:ba:51:03:c7:16:b6:74:f1:aa:5b:1f:7f:e8:32:
                    3d:49:78:84:9c:8f:9d:ae:cf:cb:9c:c5:fa:d3:00:
                    0d:52:c4:f3:fe:79:17:32:fc:0b:70:17:fd:65:8f:
                    9e:fb:cb:8b:71:40:9e:38:27:24:ad:6e:2d:52:aa:
                    a5:fe:4a:66:d9:06:15:d7:b2:98:64:75:d4:d5:a0:
                    67:f3:bb:a6:1d:6e:ee:62:15:95:17:72:a4:16:d9:
                    f7:71:c7:29:55:38:b5:08:5f:6e:64:84:51:4c:ad:
                    55:a0:fd:c4:f4:1b:9c:61:cc:40:b2:ed:df:13:dd:
                    32:2d
                Exponent: 65537 (0x10001)
        X509v3 extensions:
            X509v3 Basic Constraints: 
                CA:FALSE
            X509v3 Subject Key Identifier: 
                C1:31:D4:44:BB:68:3E:42:CA:7C:5D:4D:18:96:1E:16:88:E3:50:30
            X509v3 Authority Key Identifier: 
                keyid:4F:4D:64:16:D3:0B:30:0C:96:E3:86:E8:D2:0F:68:20:CF:D0:DC:CD

    Signature Algorithm: sha1WithRSAEncryption
         22:38:29:a5:35:68:35:f7:64:ae:0b:57:c5:ec:8c:50:4a:8b:
         07:f4:c7:00:88:f5:79:a2:9a:a4:92:c8:6a:5c:5e:fc:34:6d:
         11:e1:9c:bf:a3:7c:21:a6:c4:5d:49:0e:96:f2:9f:51:7e:c7:
         9a:3e:f2:b1:9d:26:b5:76:ce:f8:b9:d0:13:ba:9e:1e:5e:0b:
         c6:ee:01:6e:44:3c:71:85:6e:13:b2:0b:67:5d:85:58:ad:f2:
         35:12:1b:30:ab:a4:a9:67:e4:66:66:65:be:06:dc:5d:82:b6:
         19:0b:75:61:ec:5c:b3:2c:ed:ef:48:8d:59:95:f8:a6:04:af:
         8d:4c:7f:d5:4c:08:3e:39:a4:74:d3:07:25:65:5b:9a:50:b0:
         0a:eb:53:ee:71:4b:d8:b5:b8:5f:88:7e:97:ad:e9:c1:6e:79:
         9d:f8:08:1c:d2:ce:e7:34:4c:e6:10:59:65:9e:2e:a8:98:a4:
         3c:28:79:11:29:02:c3:a7:f5:fe:18:f9:03:c7:cf:d3:16:77:
         20:e0:d3:df:ca:a3:b5:08:97:7f:2d:b6:96:48:2d:fd:38:f5:
         21:ab:63:11:c3:23:35:79:8f:65:fd:13:78:4e:72:1b:c2:cf:
         25:97:c2:9a:3a:5e:5d:16:3c:d8:ec:c6:a1:94:a6:63:49:6e:
         93:ab:47:de:36:c7:68:13:20:31:77:20:dc:5b:6a:fa:d5:d5:
         c0:5e:ae:18:cf:c8:1f:c7:6e:ce:be:b2:08:cb:65:b6:c3:07:
         73:fd:ef:8a:0d:22:2a:ff:e0:16:44:ab:f1:0b:a1:19:ec:ea:
         56:b1:6d:96:e3:66:48:f8:5c:52:7b:b7:fe:f0:99:bf:41:c0:
         06:55:d1:f9:f5:57:03:64:11:43:f5:b3:7b:aa:1e:e9:54:a7:
         ee:0d:68:31:c8:4a:9e:da:84:2e:c8:73:f6:6b:69:45:ab:cb:
         08:9c:da:64:f6:2f:65:4b:a4:dc:8d:1e:c7:71:47:fb:3c:af:
         16:b5:a0:48:9f:fb:3a:3a:ee:63:d9:ff:c6:58:20:04:76:3a:
         5b:9b:60:1a:69:a3:b3:da:a9:f0:85:2f:e3:2e:45:f9:b2:5c:
         d2:65:cf:90:1f:bd:d1:16:66:01:95:12:4c:82:08:90:c5:e3:
         f9:ca:89:3b:3f:8f:5e:2d:60:38:36:d9:c8:ae:3e:67:0c:3a:
         cb:46:01:5d:4e:fb:07:17:f6:67:a7:34:13:7c:3e:cf:8f:0f:
         9b:a0:97:e1:6e:c1:58:cb:cb:c0:5b:70:ef:c0:2f:e4:5b:4c:
         ed:37:06:5a:5c:b4:6b:f1:69:3b:be:91:29:60:a1:33:8c:ed:
         96:29:01:4b:4c:06:e9:00
-----BEGIN CERTIFICATE-----
MIIE2DCCAsCgAwIBAgIBDDANBgkqhkiG9w0BAQUFADCBojELMAkGA1UEBhMCREUx
DzANBgNVBAgTBkJlcmxpbjEPMA0GA1UEBxMGQmVybGluMQ8wDQYDVQQKEwZaZW5P
cHMxEzARBgNVBAsTCk9wZXJhdGlvbnMxJjAkBgNVBAMTHUNlcnRpZmljYXRlIFNp
Z25pbmcgQXV0aG9yaXR5MSMwIQYJKoZIhvcNAQkBFhRob3N0bWFzdGVyQHplbm9w
cy5kZTAeFw0xMzAzMDkwOTU0MDBaFw0xNDAzMDkwOTU0MDBaMG0xCzAJBgNVBAYT
AkRFMQ8wDQYDVQQIEwZCZXJsaW4xDzANBgNVBAcTBkJlcmxpbjEPMA0GA1UEChMG
WmVuT3BzMRMwEQYDVQQLEwpPcGVyYXRpb25zMRYwFAYDVQQDEw16ZXVzLnhudWxs
LmRlMIIBIjANBgkqhkiG9w0BAQEFAAOCAQ8AMIIBCgKCAQEA6hAxWkr0py/sQONt
FT2nE0ygZ4arpkHvOgOexDj8ZYYWOyYZkRyjwE9vaw2ZC1NpbmbLQxfP2I2W46Ss
ytxtTLas95SpOvOelTn/yAqJpGJob8n03YBd5QXY+FvHeBSgQ/Cmataa+tp3x+hN
bGMZmRQLj2n9uk33AppVL8qnmeY9Ky9De8CNulEDxxa2dPGqWx9/6DI9SXiEnI+d
rs/LnMX60wANUsTz/nkXMvwLcBf9ZY+e+8uLcUCeOCckrW4tUqql/kpm2QYV17KY
ZHXU1aBn87umHW7uYhWVF3KkFtn3cccpVTi1CF9uZIRRTK1VoP3E9BucYcxAsu3f
E90yLQIDAQABo00wSzAJBgNVHRMEAjAAMB0GA1UdDgQWBBTBMdREu2g+Qsp8XU0Y
lh4WiONQMDAfBgNVHSMEGDAWgBRPTWQW0wswDJbjhujSD2ggz9DczTANBgkqhkiG
9w0BAQUFAAOCAgEAIjgppTVoNfdkrgtXxeyMUEqLB/THAIj1eaKapJLIalxe/DRt
EeGcv6N8IabEXUkOlvKfUX7Hmj7ysZ0mtXbO+LnQE7qeHl4Lxu4BbkQ8cYVuE7IL
Z12FWK3yNRIbMKukqWfkZmZlvgbcXYK2GQt1Yexcsyzt70iNWZX4pgSvjUx/1UwI
PjmkdNMHJWVbmlCwCutT7nFL2LW4X4h+l63pwW55nfgIHNLO5zRM5hBZZZ4uqJik
PCh5ESkCw6f1/hj5A8fP0xZ3IODT38qjtQiXfy22lkgt/Tj1IatjEcMjNXmPZf0T
eE5yG8LPJZfCmjpeXRY82OzGoZSmY0luk6tH3jbHaBMgMXcg3Ftq+tXVwF6uGM/I
H8duzr6yCMtltsMHc/3vig0iKv/gFkSr8QuhGezqVrFtluNmSPhcUnu3/vCZv0HA
BlXR+fVXA2QRQ/Wze6oe6VSn7g1oMchKntqELshz9mtpRavLCJzaZPYvZUuk3I0e
x3FH+zyvFrWgSJ/7OjruY9n/xlggBHY6W5tgGmmjs9qp8IUv4y5F+bJc0mXPkB+9
0RZmAZUSTIIIkMXj+cqJOz+PXi1gODbZyK4+Zww6y0YBXU77Bxf2Z6c0E3w+z48P
m6CX4W7BWMvLwFtw78Av5FtM7TcGWly0a/FpO76RKWChM4ztlikBS0wG6QA=
-----END CERTIFICATE-----
