Certificate:
    Data:
        Version: 3 (0x2)
        Serial Number: 12 (0xc)
        Signature Algorithm: sha1WithRSAEncryption
        Issuer: C=DE, ST=Berlin, L=Berlin, O=Example Com, OU=Operations, CN=Certificate Signing Authority/emailAddress=hostmaster@example.com
        Validity
            Not Before: Mar 27 11:57:46 2012 GMT
            Not After : Mar 27 11:57:46 2013 GMT
        Subject: C=DE, ST=Berlin, L=Berlin, O=Example Com, OU=Operations, CN=kali.xnull.de
        Subject Public Key Info:
            Public Key Algorithm: rsaEncryption
                Public-Key: (2048 bit)
                Modulus:
                    00:c5:49:76:f2:84:b7:d7:ca:1c:d7:ac:79:6b:b7:
                    58:92:31:5b:f8:ef:e9:3a:82:83:48:0d:9c:ed:8d:
                    4f:62:95:df:61:2a:9e:e6:00:a4:11:a9:18:9d:db:
                    d1:84:5c:2e:c2:65:0f:57:89:99:18:0c:82:32:ad:
                    c1:89:fa:be:b6:ef:9e:3e:db:88:c7:79:3e:b8:ef:
                    3b:6b:ae:de:04:dc:27:51:d8:97:bd:3e:b2:13:6c:
                    d7:a5:36:2e:5b:9a:fd:6a:8d:29:4c:6e:28:51:cc:
                    cf:fd:40:6d:ef:29:d1:40:08:99:ee:af:c7:77:3b:
                    1c:d7:29:37:64:d3:d0:77:5e:80:d5:6d:3f:5d:41:
                    99:69:c5:fd:47:2f:46:a3:05:12:e3:00:25:8a:28:
                    18:70:b2:f3:36:4a:64:8b:43:a2:6b:9d:44:2c:99:
                    b3:85:5c:ae:30:b6:65:2e:ed:34:a3:f0:72:31:a1:
                    75:8d:6b:a4:17:0c:bb:bf:fc:a4:5a:24:6a:aa:e8:
                    41:30:22:9b:3d:91:36:37:b3:9d:04:e8:63:0f:32:
                    ba:e4:c5:3e:69:56:0b:de:03:0e:a9:36:5c:6a:c2:
                    a9:d8:94:d8:9e:74:97:db:27:2d:07:fb:7c:7d:1d:
                    cb:f9:9f:db:f6:b3:be:4b:7e:ea:f9:27:b7:7d:1b:
                    14:95
                Exponent: 65537 (0x10001)
        X509v3 extensions:
            X509v3 Basic Constraints: 
                CA:FALSE
            X509v3 Subject Key Identifier: 
                3D:62:08:FB:E6:66:E9:36:83:8B:77:C8:14:79:E1:3A:95:81:82:45
            X509v3 Authority Key Identifier: 
                keyid:50:33:E6:BF:4D:B3:66:AA:26:97:06:9B:DB:57:24:DF:C1:49:66:E3

    Signature Algorithm: sha1WithRSAEncryption
        38:08:aa:91:03:45:57:7a:6c:5d:4a:c5:10:5f:42:09:63:03:
        32:65:e5:50:78:20:83:3f:49:61:56:e1:3c:42:35:f3:d0:5f:
        f0:20:5e:97:b3:a1:1f:94:9f:cb:1c:ef:f5:d0:40:a3:fb:bb:
        45:87:4a:0d:17:b0:d2:34:50:ea:4e:2f:c2:8a:07:31:66:49:
        62:9a:79:6d:4e:3e:fe:e8:24:bf:a5:7b:45:7a:2f:5c:82:3a:
        89:f5:ff:1c:0d:47:32:4b:ff:ec:60:8b:77:78:49:05:a2:1b:
        1e:41:8f:19:5f:fa:ab:e6:36:85:35:5d:47:00:a2:46:76:47:
        80:6a:f4:47:2a:e6:0b:9c:fe:dd:cc:e2:c5:09:56:6e:7f:60:
        62:12:ba:13:f0:2f:1b:ba:24:50:e7:6d:62:bb:2c:03:c4:1e:
        53:80:ee:67:61:5f:b9:cd:f9:75:86:ba:0b:c2:bc:f1:dd:95:
        4d:b8:13:40:9b:5f:fd:c8:e5:34:d4:93:ad:ac:df:04:50:9a:
        a2:39:da:a3:53:3d:5a:63:8b:07:43:65:d9:de:1f:fd:77:77:
        30:65:f0:cc:a1:d7:ea:f8:88:bf:01:7a:3f:d0:b0:56:cd:f1:
        62:4f:65:6f:67:b0:e9:b2:38:d6:49:30:ac:78:a5:10:87:b3:
        32:0a:1b:64:74:2c:0f:e8:47:b9:5b:b5:f3:94:eb:de:97:10:
        15:ef:36:48:18:5e:9c:9a:79:d9:ec:ea:3d:36:df:f5:56:2b:
        5c:ed:fe:40:01:f6:7a:c5:57:82:80:65:0a:94:f5:dc:35:78:
        95:ce:c6:00:f1:2d:f3:47:4d:95:a6:e4:cf:19:81:dd:d0:53:
        b9:e2:49:53:fe:00:2e:0f:5c:17:ef:f6:43:ce:48:ba:5d:a7:
        1f:bc:55:a3:ca:2f:15:d0:7b:ee:47:03:fd:5e:2e:3a:8d:b0:
        23:94:bd:3a:18:83:cc:de:55:9a:b2:19:54:1c:59:8e:19:9b:
        98:cf:18:76:7c:9c:d3:58:92:41:31:23:cd:65:c3:6d:9a:a4:
        7d:97:08:3f:7e:ed:62:78:0b:36:db:21:59:89:7f:93:fb:b0:
        99:75:60:c3:c6:b6:2a:bd:4f:3e:11:e1:37:91:1f:eb:16:bb:
        e9:5c:99:01:c6:69:58:a2:51:a8:5a:25:62:c2:13:89:0f:8b:
        e1:8f:f8:6d:07:c5:86:bb:da:55:16:ae:a8:be:0a:ad:f3:3b:
        fe:f5:25:e7:26:dd:fd:cd:f3:1a:e4:06:6b:4e:1b:67:58:32:
        4f:73:78:af:ce:1d:3f:0f:41:c3:2f:de:48:d8:08:ef:c4:83:
        4d:f6:e6:cb:be:df:a6:e8
-----BEGIN CERTIFICATE-----
MIIE5DCCAsygAwIBAgIBDDANBgkqhkiG9w0BAQUFADCBqTELMAkGA1UEBhMCREUx
DzANBgNVBAgTBkJlcmxpbjEPMA0GA1UEBxMGQmVybGluMRQwEgYDVQQKEwtFeGFt
cGxlIENvbTETMBEGA1UECxMKT3BlcmF0aW9uczEmMCQGA1UEAxMdQ2VydGlmaWNh
dGUgU2lnbmluZyBBdXRob3JpdHkxJTAjBgkqhkiG9w0BCQEWFmhvc3RtYXN0ZXJA
ZXhhbXBsZS5jb20wHhcNMTIwMzI3MTE1NzQ2WhcNMTMwMzI3MTE1NzQ2WjByMQsw
CQYDVQQGEwJERTEPMA0GA1UECBMGQmVybGluMQ8wDQYDVQQHEwZCZXJsaW4xFDAS
BgNVBAoTC0V4YW1wbGUgQ29tMRMwEQYDVQQLEwpPcGVyYXRpb25zMRYwFAYDVQQD
Ew1rYWxpLnhudWxsLmRlMIIBIjANBgkqhkiG9w0BAQEFAAOCAQ8AMIIBCgKCAQEA
xUl28oS318oc16x5a7dYkjFb+O/pOoKDSA2c7Y1PYpXfYSqe5gCkEakYndvRhFwu
wmUPV4mZGAyCMq3Bifq+tu+ePtuIx3k+uO87a67eBNwnUdiXvT6yE2zXpTYuW5r9
ao0pTG4oUczP/UBt7ynRQAiZ7q/Hdzsc1yk3ZNPQd16A1W0/XUGZacX9Ry9GowUS
4wAliigYcLLzNkpki0Oia51ELJmzhVyuMLZlLu00o/ByMaF1jWukFwy7v/ykWiRq
quhBMCKbPZE2N7OdBOhjDzK65MU+aVYL3gMOqTZcasKp2JTYnnSX2yctB/t8fR3L
+Z/b9rO+S37q+Se3fRsUlQIDAQABo00wSzAJBgNVHRMEAjAAMB0GA1UdDgQWBBQ9
Ygj75mbpNoOLd8gUeeE6lYGCRTAfBgNVHSMEGDAWgBRQM+a/TbNmqiaXBpvbVyTf
wUlm4zANBgkqhkiG9w0BAQUFAAOCAgEAOAiqkQNFV3psXUrFEF9CCWMDMmXlUHgg
gz9JYVbhPEI189Bf8CBel7OhH5Sfyxzv9dBAo/u7RYdKDRew0jRQ6k4vwooHMWZJ
Ypp5bU4+/ugkv6V7RXovXII6ifX/HA1HMkv/7GCLd3hJBaIbHkGPGV/6q+Y2hTVd
RwCiRnZHgGr0RyrmC5z+3czixQlWbn9gYhK6E/AvG7okUOdtYrssA8QeU4DuZ2Ff
uc35dYa6C8K88d2VTbgTQJtf/cjlNNSTrazfBFCaojnao1M9WmOLB0Nl2d4f/Xd3
MGXwzKHX6viIvwF6P9CwVs3xYk9lb2ew6bI41kkwrHilEIezMgobZHQsD+hHuVu1
85Tr3pcQFe82SBhenJp52ezqPTbf9VYrXO3+QAH2esVXgoBlCpT13DV4lc7GAPEt
80dNlabkzxmB3dBTueJJU/4ALg9cF+/2Q85Iul2nH7xVo8ovFdB77kcD/V4uOo2w
I5S9OhiDzN5VmrIZVBxZjhmbmM8Ydnyc01iSQTEjzWXDbZqkfZcIP37tYngLNtsh
WYl/k/uwmXVgw8a2Kr1PPhHhN5Ef6xa76VyZAcZpWKJRqFolYsITiQ+L4Y/4bQfF
hrvaVRauqL4KrfM7/vUl5ybd/c3zGuQGa04bZ1gyT3N4r84dPw9Bwy/eSNgI78SD
Tfbmy77fpug=
-----END CERTIFICATE-----
