Certificate:
    Data:
        Version: 3 (0x2)
        Serial Number: 14 (0xe)
    Signature Algorithm: sha1WithRSAEncryption
        Issuer: C=DE, ST=Berlin, L=Berlin, O=ZenOps, OU=Operations, CN=Certificate Signing Authority/emailAddress=hostmaster@zenops.de
        Validity
            Not Before: Mar 10 20:25:15 2013 GMT
            Not After : Mar 10 20:25:15 2014 GMT
        Subject: C=DE, ST=Berlin, L=Berlin, O=ZenOps, OU=Operations, CN=www.admineo.de
        Subject Public Key Info:
            Public Key Algorithm: rsaEncryption
                Public-Key: (2048 bit)
                Modulus:
                    00:b9:5b:12:a8:4a:3f:62:57:e7:73:dc:15:e8:a7:
                    16:ef:7a:be:2f:ae:36:16:d6:21:24:12:2e:41:13:
                    b5:b7:a4:25:14:6b:1e:65:f9:87:8b:32:ec:2d:f1:
                    4f:2e:d7:20:24:ba:32:4d:b2:ff:7d:db:c9:c1:cf:
                    56:77:3b:99:d7:b8:6c:68:8e:c0:60:74:2d:b1:62:
                    88:cf:f6:6d:68:cb:34:18:10:51:a6:74:39:50:0a:
                    b8:3e:15:f2:44:69:74:26:b0:8c:0a:ba:d2:3e:42:
                    58:b6:d5:7f:2b:9a:ef:a7:60:06:73:8a:8c:4e:ee:
                    4c:fd:fa:41:f0:04:ba:2d:0c:df:88:74:a5:0c:95:
                    90:44:1e:1f:12:65:ad:4e:84:60:c8:00:c7:dd:23:
                    20:ed:e0:57:f4:87:c7:c3:18:57:a8:ac:b6:04:dc:
                    fc:bf:64:03:24:20:89:a2:42:23:cc:67:4e:0c:f7:
                    85:e9:97:85:96:56:3d:62:f2:f2:38:43:8d:cd:50:
                    64:85:ec:9b:69:57:dc:b4:fc:d7:d2:36:89:ab:e1:
                    09:09:19:a3:63:1f:40:44:2d:34:fc:1e:75:31:d9:
                    b2:9b:b0:e5:57:65:52:4a:f5:8a:be:3d:0c:52:7d:
                    91:b0:97:3c:2f:3c:6f:6c:f2:e0:32:3f:7a:f9:c3:
                    96:1b
                Exponent: 65537 (0x10001)
        X509v3 extensions:
            X509v3 Basic Constraints: 
                CA:FALSE
            X509v3 Subject Key Identifier: 
                CF:41:18:47:D8:38:67:78:CB:B9:2A:24:85:49:5B:4F:8B:3E:B5:D3
            X509v3 Authority Key Identifier: 
                keyid:4F:4D:64:16:D3:0B:30:0C:96:E3:86:E8:D2:0F:68:20:CF:D0:DC:CD

    Signature Algorithm: sha1WithRSAEncryption
         4a:e2:c9:4f:59:42:b0:09:69:23:a9:9b:2b:5d:23:a0:ae:ab:
         d9:7c:9a:7c:90:31:63:29:52:66:d2:8b:76:d0:6b:6b:06:50:
         65:ec:a7:03:b9:a3:35:14:9a:a1:ef:b3:ff:5b:fd:86:2b:49:
         aa:89:87:aa:f4:dc:04:6b:6e:ae:9e:96:6d:c7:b6:c2:ad:b4:
         91:97:a1:16:b8:82:13:bf:81:72:8f:d1:a3:55:39:e8:37:15:
         ae:0e:3c:0a:09:5f:22:05:d7:13:ac:3a:6c:a8:14:4e:3c:4f:
         5f:31:9a:84:f2:63:39:0e:c0:db:1d:ca:7e:aa:34:fa:47:54:
         28:8a:8c:bc:6c:db:3d:0c:74:3b:2b:93:25:70:eb:ea:d4:18:
         c9:c0:44:30:8b:f3:9e:b1:7e:5c:4a:a8:6b:ff:6a:77:f4:b2:
         06:5e:70:f1:95:da:78:e6:b2:2e:2a:fc:34:be:90:ce:d1:3a:
         1b:10:5a:ed:cc:ab:60:8c:a1:42:02:c7:86:28:b0:e2:f9:f2:
         4b:87:57:f4:03:7a:9f:46:8d:b0:f7:bd:4f:d7:30:92:e1:b5:
         1d:98:86:c4:b0:c3:9c:83:e8:36:1d:a2:06:c5:45:1c:49:36:
         9f:b1:03:c8:5e:8a:46:58:33:8f:08:fd:93:1c:63:7b:ee:4f:
         75:6d:41:09:e0:4f:96:47:9b:f4:77:28:d4:14:62:cc:06:a2:
         14:aa:ba:d3:11:b2:7c:ea:ba:d0:98:2c:76:aa:70:db:42:fc:
         af:a1:c9:d7:83:4a:cb:55:b3:e2:8e:14:28:9e:1d:a8:ef:57:
         34:ea:c9:08:ca:90:ce:b5:42:c0:a6:32:aa:d3:9f:d1:e0:6a:
         a1:03:e8:9d:c8:6e:98:f2:e7:2b:0c:ea:ba:7f:0a:fb:fa:35:
         ed:c4:db:f0:81:10:bc:5e:b0:7c:14:34:0c:97:58:24:3b:d5:
         3a:ac:26:97:a2:6f:03:b9:8a:7b:b6:6c:81:51:ef:86:0f:76:
         62:59:6b:bb:82:bf:73:11:f7:44:0f:8b:87:55:29:53:1b:07:
         92:bd:e8:ff:ee:4d:c3:30:ab:c9:ab:c3:47:3a:1b:a0:0f:2c:
         42:05:68:28:14:05:f7:49:5d:64:2c:5d:8f:fb:b9:ef:f0:bd:
         4d:33:4a:43:fb:aa:f9:ab:3f:8d:19:3a:42:3f:0b:0f:fc:b5:
         f5:e6:4a:7b:05:96:1c:96:65:88:ee:90:8c:fe:a1:34:3a:97:
         96:73:c7:31:de:15:3c:98:4e:90:78:9f:ab:11:62:31:0b:86:
         f0:ba:e0:ea:00:ad:21:9b:ee:03:c0:14:54:a2:29:b7:10:a0:
         18:2d:af:81:22:36:73:0c
-----BEGIN CERTIFICATE-----
MIIE2TCCAsGgAwIBAgIBDjANBgkqhkiG9w0BAQUFADCBojELMAkGA1UEBhMCREUx
DzANBgNVBAgTBkJlcmxpbjEPMA0GA1UEBxMGQmVybGluMQ8wDQYDVQQKEwZaZW5P
cHMxEzARBgNVBAsTCk9wZXJhdGlvbnMxJjAkBgNVBAMTHUNlcnRpZmljYXRlIFNp
Z25pbmcgQXV0aG9yaXR5MSMwIQYJKoZIhvcNAQkBFhRob3N0bWFzdGVyQHplbm9w
cy5kZTAeFw0xMzAzMTAyMDI1MTVaFw0xNDAzMTAyMDI1MTVaMG4xCzAJBgNVBAYT
AkRFMQ8wDQYDVQQIEwZCZXJsaW4xDzANBgNVBAcTBkJlcmxpbjEPMA0GA1UEChMG
WmVuT3BzMRMwEQYDVQQLEwpPcGVyYXRpb25zMRcwFQYDVQQDEw53d3cuYWRtaW5l
by5kZTCCASIwDQYJKoZIhvcNAQEBBQADggEPADCCAQoCggEBALlbEqhKP2JX53Pc
FeinFu96vi+uNhbWISQSLkETtbekJRRrHmX5h4sy7C3xTy7XICS6Mk2y/33bycHP
Vnc7mde4bGiOwGB0LbFiiM/2bWjLNBgQUaZ0OVAKuD4V8kRpdCawjAq60j5CWLbV
fyua76dgBnOKjE7uTP36QfAEui0M34h0pQyVkEQeHxJlrU6EYMgAx90jIO3gV/SH
x8MYV6istgTc/L9kAyQgiaJCI8xnTgz3hemXhZZWPWLy8jhDjc1QZIXsm2lX3LT8
19I2iavhCQkZo2MfQEQtNPwedTHZspuw5VdlUkr1ir49DFJ9kbCXPC88b2zy4DI/
evnDlhsCAwEAAaNNMEswCQYDVR0TBAIwADAdBgNVHQ4EFgQUz0EYR9g4Z3jLuSok
hUlbT4s+tdMwHwYDVR0jBBgwFoAUT01kFtMLMAyW44bo0g9oIM/Q3M0wDQYJKoZI
hvcNAQEFBQADggIBAEriyU9ZQrAJaSOpmytdI6Cuq9l8mnyQMWMpUmbSi3bQa2sG
UGXspwO5ozUUmqHvs/9b/YYrSaqJh6r03ARrbq6elm3HtsKttJGXoRa4ghO/gXKP
0aNVOeg3Fa4OPAoJXyIF1xOsOmyoFE48T18xmoTyYzkOwNsdyn6qNPpHVCiKjLxs
2z0MdDsrkyVw6+rUGMnARDCL856xflxKqGv/anf0sgZecPGV2njmsi4q/DS+kM7R
OhsQWu3Mq2CMoUICx4YosOL58kuHV/QDep9GjbD3vU/XMJLhtR2YhsSww5yD6DYd
ogbFRRxJNp+xA8heikZYM48I/ZMcY3vuT3VtQQngT5ZHm/R3KNQUYswGohSqutMR
snzqutCYLHaqcNtC/K+hydeDSstVs+KOFCieHajvVzTqyQjKkM61QsCmMqrTn9Hg
aqED6J3Ibpjy5ysM6rp/Cvv6Ne3E2/CBELxesHwUNAyXWCQ71TqsJpeibwO5inu2
bIFR74YPdmJZa7uCv3MR90QPi4dVKVMbB5K96P/uTcMwq8mrw0c6G6APLEIFaCgU
BfdJXWQsXY/7ue/wvU0zSkP7qvmrP40ZOkI/Cw/8tfXmSnsFlhyWZYjukIz+oTQ6
l5ZzxzHeFTyYTpB4n6sRYjELhvC64OoArSGb7gPAFFSiKbcQoBgtr4EiNnMM
-----END CERTIFICATE-----
