Certificate:
    Data:
        Version: 3 (0x2)
        Serial Number: 16 (0x10)
        Signature Algorithm: sha1WithRSAEncryption
        Issuer: C=DE, ST=Berlin, L=Berlin, O=Example Com, OU=Operations, CN=Certificate Signing Authority/emailAddress=hostmaster@example.com
        Validity
            Not Before: May 12 21:17:30 2012 GMT
            Not After : May 12 21:17:30 2013 GMT
        Subject: C=DE, ST=Berlin, L=Berlin, O=Example Com, OU=Operations, CN=gentoo-stable.home.xnull.de
        Subject Public Key Info:
            Public Key Algorithm: rsaEncryption
                Public-Key: (2048 bit)
                Modulus:
                    00:c6:4d:89:5d:af:4b:ee:fb:a4:aa:2a:eb:08:41:
                    ed:95:cb:5c:b1:ca:5b:b9:ed:a3:48:80:ef:40:e6:
                    24:0c:e3:87:12:8f:d1:81:bc:2e:2f:0e:57:7f:25:
                    85:7b:a8:3d:52:10:9c:80:27:d5:69:c2:46:d1:f6:
                    09:ac:f2:bd:88:b6:c5:18:f1:9e:24:f1:e7:b2:90:
                    71:2b:f7:23:19:98:90:6c:ad:69:1d:46:36:8f:c9:
                    74:7d:75:07:c7:8c:39:91:5d:02:d4:59:b7:ea:e5:
                    9f:d7:de:e1:76:38:e8:f7:0a:11:60:f7:23:44:7e:
                    f0:d8:2d:4b:a1:31:ad:3e:75:dd:87:71:6a:01:e9:
                    56:42:6d:5b:16:d2:60:cc:67:c2:0a:18:3a:60:c8:
                    1f:f8:a2:c5:7e:41:70:08:d8:46:9d:b6:82:d0:96:
                    2e:b5:67:f5:c9:ee:df:54:5f:b9:cc:f5:b4:a4:f0:
                    31:c7:8e:46:e1:15:38:cf:5d:bb:d9:cf:d5:8a:ae:
                    9d:c5:ca:c7:3a:45:46:9f:c9:ce:07:55:b4:b7:65:
                    86:3c:9b:a3:dd:fd:17:8b:81:78:0c:14:a1:40:40:
                    d7:05:35:09:a1:27:2e:c3:8b:43:bb:53:89:4c:f3:
                    c4:fc:94:39:e4:c8:70:54:f9:eb:d9:09:df:a4:67:
                    61:67
                Exponent: 65537 (0x10001)
        X509v3 extensions:
            X509v3 Basic Constraints: 
                CA:FALSE
            X509v3 Subject Key Identifier: 
                FC:27:E9:F6:4C:7E:4E:2C:21:40:D2:0E:9C:86:87:B0:12:06:52:09
            X509v3 Authority Key Identifier: 
                keyid:50:33:E6:BF:4D:B3:66:AA:26:97:06:9B:DB:57:24:DF:C1:49:66:E3

    Signature Algorithm: sha1WithRSAEncryption
        03:ff:40:c5:3f:fd:a1:7f:88:3d:a1:4b:ae:b9:69:88:c5:72:
        fc:13:69:86:55:e0:a9:3f:49:c2:90:a7:45:38:7b:d8:8b:02:
        6b:ba:20:2a:cf:f2:11:e5:27:21:84:17:d7:1e:22:4b:22:0f:
        13:63:60:41:80:83:c6:a2:f2:e8:be:ae:6e:d7:51:9d:6f:63:
        77:a1:17:aa:ce:0f:04:8f:ec:05:a8:d4:ff:22:20:48:ee:e5:
        6c:7b:75:ab:28:79:9d:c8:c9:db:3a:cb:0b:02:43:58:75:ed:
        0b:2c:c6:aa:15:61:07:e5:bc:97:cf:63:e3:97:4a:b5:b7:56:
        18:73:ab:fb:78:a4:58:e4:17:0b:69:41:2e:79:a8:53:d6:1e:
        48:16:dd:a0:12:0c:d5:c0:81:fe:4c:ad:19:7e:ce:ee:05:b2:
        5b:ab:b1:b4:79:b7:b9:70:1d:5e:fe:94:db:e2:11:cc:e7:3b:
        cb:0c:bb:6b:2c:ab:d3:6d:48:dd:30:fc:40:b7:59:7a:17:00:
        ff:d6:cb:59:17:fa:de:77:31:92:4b:59:6b:3f:70:1c:51:eb:
        d7:08:d0:5d:2b:2d:b2:31:17:ca:a0:b2:19:9f:89:b2:2b:39:
        2c:d0:e7:8c:0e:c4:ee:ae:d3:b1:5d:4a:18:d2:ee:e7:ce:57:
        17:75:d7:05:ca:8e:1a:a7:f7:6f:ad:7b:ae:fe:9c:77:b7:4d:
        98:ce:5b:fb:5c:1d:50:35:31:af:c8:07:0f:eb:0d:6f:1b:bb:
        d7:43:b3:be:10:61:50:25:b1:01:f1:df:27:2a:7e:9b:61:0c:
        26:5a:2d:b2:5d:94:f9:a0:58:52:06:43:9a:97:fe:e5:b9:0a:
        0e:9a:62:16:98:a0:95:12:89:b6:e4:70:ec:bc:9b:6d:6b:95:
        e3:ca:61:9d:12:d0:5a:87:c5:38:60:a9:d9:74:8f:2a:02:f0:
        40:b8:d4:40:49:2b:db:85:b6:52:22:03:2d:97:db:da:de:7e:
        92:ee:1e:b4:3d:92:9e:66:71:f8:89:88:ee:d3:4e:fc:54:d8:
        1f:e9:ac:c5:82:3e:4d:75:7c:49:3f:90:7e:65:1a:ce:0f:e0:
        27:af:ae:f0:60:a8:d9:af:1a:9c:37:ae:00:40:7e:b2:50:a7:
        24:2d:66:f9:b1:d6:35:41:d8:e3:37:7b:a7:97:f3:f1:50:be:
        5d:e8:78:0a:30:ee:6c:96:30:be:e7:f3:4f:5d:06:6b:23:8d:
        95:18:97:b8:a0:6b:7e:49:fe:23:c2:53:d1:dc:96:57:ea:89:
        ba:a5:b4:57:61:e6:6a:66:e0:c3:d8:f8:51:6e:f9:55:fd:90:
        cf:07:5f:4c:40:73:92:14
-----BEGIN CERTIFICATE-----
MIIE8zCCAtugAwIBAgIBEDANBgkqhkiG9w0BAQUFADCBqTELMAkGA1UEBhMCREUx
DzANBgNVBAgTBkJlcmxpbjEPMA0GA1UEBxMGQmVybGluMRQwEgYDVQQKEwtFeGFt
cGxlIENvbTETMBEGA1UECxMKT3BlcmF0aW9uczEmMCQGA1UEAxMdQ2VydGlmaWNh
dGUgU2lnbmluZyBBdXRob3JpdHkxJTAjBgkqhkiG9w0BCQEWFmhvc3RtYXN0ZXJA
ZXhhbXBsZS5jb20wHhcNMTIwNTEyMjExNzMwWhcNMTMwNTEyMjExNzMwWjCBgDEL
MAkGA1UEBhMCREUxDzANBgNVBAgTBkJlcmxpbjEPMA0GA1UEBxMGQmVybGluMRQw
EgYDVQQKEwtFeGFtcGxlIENvbTETMBEGA1UECxMKT3BlcmF0aW9uczEkMCIGA1UE
AxMbZ2VudG9vLXN0YWJsZS5ob21lLnhudWxsLmRlMIIBIjANBgkqhkiG9w0BAQEF
AAOCAQ8AMIIBCgKCAQEAxk2JXa9L7vukqirrCEHtlctcscpbue2jSIDvQOYkDOOH
Eo/RgbwuLw5XfyWFe6g9UhCcgCfVacJG0fYJrPK9iLbFGPGeJPHnspBxK/cjGZiQ
bK1pHUY2j8l0fXUHx4w5kV0C1Fm36uWf197hdjjo9woRYPcjRH7w2C1LoTGtPnXd
h3FqAelWQm1bFtJgzGfCChg6YMgf+KLFfkFwCNhGnbaC0JYutWf1ye7fVF+5zPW0
pPAxx45G4RU4z1272c/Viq6dxcrHOkVGn8nOB1W0t2WGPJuj3f0Xi4F4DBShQEDX
BTUJoScuw4tDu1OJTPPE/JQ55MhwVPnr2QnfpGdhZwIDAQABo00wSzAJBgNVHRME
AjAAMB0GA1UdDgQWBBT8J+n2TH5OLCFA0g6choewEgZSCTAfBgNVHSMEGDAWgBRQ
M+a/TbNmqiaXBpvbVyTfwUlm4zANBgkqhkiG9w0BAQUFAAOCAgEAA/9AxT/9oX+I
PaFLrrlpiMVy/BNphlXgqT9JwpCnRTh72IsCa7ogKs/yEeUnIYQX1x4iSyIPE2Ng
QYCDxqLy6L6ubtdRnW9jd6EXqs4PBI/sBajU/yIgSO7lbHt1qyh5ncjJ2zrLCwJD
WHXtCyzGqhVhB+W8l89j45dKtbdWGHOr+3ikWOQXC2lBLnmoU9YeSBbdoBIM1cCB
/kytGX7O7gWyW6uxtHm3uXAdXv6U2+IRzOc7ywy7ayyr021I3TD8QLdZehcA/9bL
WRf63ncxkktZaz9wHFHr1wjQXSstsjEXyqCyGZ+Jsis5LNDnjA7E7q7TsV1KGNLu
585XF3XXBcqOGqf3b617rv6cd7dNmM5b+1wdUDUxr8gHD+sNbxu710OzvhBhUCWx
AfHfJyp+m2EMJlotsl2U+aBYUgZDmpf+5bkKDppiFpiglRKJtuRw7LybbWuV48ph
nRLQWofFOGCp2XSPKgLwQLjUQEkr24W2UiIDLZfb2t5+ku4etD2SnmZx+ImI7tNO
/FTYH+msxYI+TXV8ST+QfmUazg/gJ6+u8GCo2a8anDeuAEB+slCnJC1m+bHWNUHY
4zd7p5fz8VC+Xeh4CjDubJYwvufzT10GayONlRiXuKBrfkn+I8JT0dyWV+qJuqW0
V2Hmambgw9j4UW75Vf2QzwdfTEBzkhQ=
-----END CERTIFICATE-----
