Certificate:
    Data:
        Version: 3 (0x2)
        Serial Number: 17 (0x11)
    Signature Algorithm: sha1WithRSAEncryption
        Issuer: C=DE, ST=Berlin, L=Berlin, O=ZenOps, OU=Operations, CN=Certificate Signing Authority/emailAddress=hostmaster@zenops.de
        Validity
            Not Before: Apr  7 16:48:53 2013 GMT
            Not After : Apr  7 16:48:53 2014 GMT
        Subject: C=DE, ST=Berlin, L=Berlin, O=ZenOps, OU=Operations, CN=*.zenops.net
        Subject Public Key Info:
            Public Key Algorithm: rsaEncryption
                Public-Key: (2048 bit)
                Modulus:
                    00:d4:8b:e0:4a:66:3f:dc:60:2a:28:a0:bb:e1:54:
                    76:f2:7c:dd:bb:ee:30:32:6a:59:f0:07:93:02:6b:
                    ae:1d:4f:a5:a6:87:ec:5c:9e:5e:5f:6d:1d:0d:ac:
                    98:43:e0:b7:79:3e:a1:6a:6d:8c:f7:8e:58:cc:1b:
                    82:da:75:5d:bf:ae:9e:03:21:0b:77:69:e2:59:26:
                    5d:d2:5b:0a:68:69:cd:bc:d0:54:dc:5f:62:df:83:
                    f7:00:ed:ad:7b:fe:bd:53:5d:97:66:65:12:94:09:
                    a7:15:e2:3e:76:3d:1f:4d:db:36:a6:8f:3b:01:48:
                    87:1e:b5:9f:94:70:24:9d:d9:dc:c1:00:e6:1b:f9:
                    5c:78:89:db:c4:18:42:b1:f4:01:6b:ab:9f:1f:96:
                    ae:93:26:97:67:fc:58:94:0e:6e:30:95:be:00:42:
                    bd:94:7f:a4:fa:91:f6:70:fe:64:e3:8b:5e:ab:13:
                    e3:4b:4d:e7:c0:92:d7:5a:bf:14:7a:3e:10:0e:15:
                    ed:ae:28:90:49:01:1a:78:d3:61:83:87:cb:c4:e3:
                    7e:4e:5a:a7:cd:a8:16:83:00:83:e2:2d:07:d0:f2:
                    98:41:9d:ab:b9:45:0c:0d:29:9e:3f:c0:8c:63:e2:
                    6d:14:77:2e:4e:89:1b:17:2b:ed:af:f0:7a:63:48:
                    a5:77
                Exponent: 65537 (0x10001)
        X509v3 extensions:
            X509v3 Basic Constraints: 
                CA:FALSE
            X509v3 Subject Key Identifier: 
                D6:BC:B0:66:23:F6:96:3D:65:27:08:FC:DC:51:31:A4:C3:60:F4:16
            X509v3 Authority Key Identifier: 
                keyid:4F:4D:64:16:D3:0B:30:0C:96:E3:86:E8:D2:0F:68:20:CF:D0:DC:CD

    Signature Algorithm: sha1WithRSAEncryption
         43:56:67:39:a4:68:05:ab:c6:5d:b4:4a:f4:ab:40:82:5e:10:
         1d:04:81:42:1e:49:3c:52:42:5c:0d:23:70:97:30:70:38:81:
         52:42:30:5d:fd:a7:ce:5d:ed:42:02:2d:76:7d:a3:ce:0d:19:
         b9:e5:82:22:b3:c2:c8:83:2d:6f:28:a9:53:c6:32:9a:45:86:
         21:da:e2:42:e0:f1:3c:6a:7b:f8:ca:64:70:f7:f6:ce:b1:b6:
         48:ac:b7:01:d0:ca:b2:ed:81:49:64:df:ee:15:54:ce:3c:4f:
         25:c3:c6:92:37:5f:5e:ef:c7:e2:49:da:1e:3a:bf:bb:42:8e:
         d7:7f:ab:58:b9:8f:58:dd:c5:8b:54:21:df:43:9b:4c:da:40:
         f9:4b:87:d9:05:ef:6f:bd:7c:65:c6:45:de:c5:55:9e:bc:08:
         c7:ce:7b:e2:6b:f4:fd:51:08:e9:4d:bd:ba:55:24:e7:02:21:
         e4:24:25:ab:95:55:7b:d5:aa:9b:67:11:91:ee:bb:c3:bb:bc:
         d1:a0:d0:93:32:53:76:0a:3f:13:20:5e:3f:11:38:80:b1:9b:
         12:91:98:61:27:20:fb:2f:ed:09:97:2b:c6:2c:8d:e3:ea:a1:
         ab:66:bd:4f:99:4a:68:9e:71:23:0d:60:0f:c1:05:91:be:97:
         6e:ee:39:57:02:e8:a4:20:cf:51:68:50:64:0d:9b:83:bb:54:
         84:8c:6a:ab:4f:0b:cf:ef:f5:64:1f:e3:43:94:1a:cc:b3:c6:
         5e:7e:64:05:8b:7e:04:14:fc:24:6c:8f:ec:02:ce:a6:77:f3:
         d7:80:4b:8b:c6:4e:06:f5:a2:2c:c7:c6:86:ba:83:9c:28:14:
         05:5d:ca:b5:c5:f8:3a:96:1f:c8:83:09:4d:d7:02:41:cc:97:
         d5:40:da:57:36:29:35:a7:66:76:f5:b5:4c:d1:37:6a:1e:6c:
         d5:61:4a:98:e5:60:11:97:29:e3:2d:6b:01:8d:69:e6:95:71:
         1c:75:26:77:a2:78:d4:62:41:99:4c:74:5c:26:fd:43:b4:d8:
         83:61:b6:fd:81:b0:c3:67:a0:b1:d4:c9:6e:93:15:48:27:7a:
         c7:07:1e:ad:53:4b:9c:7e:09:e3:8d:00:64:51:5f:6d:05:53:
         5c:f2:d2:f2:a1:72:55:5f:2d:c2:dd:f1:2a:da:1d:bc:45:cc:
         97:c3:3e:0c:43:31:5e:7a:27:31:4d:75:0c:0f:7d:ca:92:c4:
         82:0d:ec:94:2d:bd:51:f8:90:80:8c:1f:1d:74:13:87:21:41:
         4b:e2:56:54:bc:83:f1:bc:c0:5a:81:89:3d:0c:69:b5:de:19:
         d1:91:7c:eb:b9:c6:4e:49
-----BEGIN CERTIFICATE-----
MIIE1zCCAr+gAwIBAgIBETANBgkqhkiG9w0BAQUFADCBojELMAkGA1UEBhMCREUx
DzANBgNVBAgTBkJlcmxpbjEPMA0GA1UEBxMGQmVybGluMQ8wDQYDVQQKEwZaZW5P
cHMxEzARBgNVBAsTCk9wZXJhdGlvbnMxJjAkBgNVBAMTHUNlcnRpZmljYXRlIFNp
Z25pbmcgQXV0aG9yaXR5MSMwIQYJKoZIhvcNAQkBFhRob3N0bWFzdGVyQHplbm9w
cy5kZTAeFw0xMzA0MDcxNjQ4NTNaFw0xNDA0MDcxNjQ4NTNaMGwxCzAJBgNVBAYT
AkRFMQ8wDQYDVQQIEwZCZXJsaW4xDzANBgNVBAcTBkJlcmxpbjEPMA0GA1UEChMG
WmVuT3BzMRMwEQYDVQQLEwpPcGVyYXRpb25zMRUwEwYDVQQDFAwqLnplbm9wcy5u
ZXQwggEiMA0GCSqGSIb3DQEBAQUAA4IBDwAwggEKAoIBAQDUi+BKZj/cYCoooLvh
VHbyfN277jAyalnwB5MCa64dT6Wmh+xcnl5fbR0NrJhD4Ld5PqFqbYz3jljMG4La
dV2/rp4DIQt3aeJZJl3SWwpoac280FTcX2Lfg/cA7a17/r1TXZdmZRKUCacV4j52
PR9N2zamjzsBSIcetZ+UcCSd2dzBAOYb+Vx4idvEGEKx9AFrq58flq6TJpdn/FiU
Dm4wlb4AQr2Uf6T6kfZw/mTji16rE+NLTefAktdavxR6PhAOFe2uKJBJARp402GD
h8vE435OWqfNqBaDAIPiLQfQ8phBnau5RQwNKZ4/wIxj4m0Udy5OiRsXK+2v8Hpj
SKV3AgMBAAGjTTBLMAkGA1UdEwQCMAAwHQYDVR0OBBYEFNa8sGYj9pY9ZScI/NxR
MaTDYPQWMB8GA1UdIwQYMBaAFE9NZBbTCzAMluOG6NIPaCDP0NzNMA0GCSqGSIb3
DQEBBQUAA4ICAQBDVmc5pGgFq8ZdtEr0q0CCXhAdBIFCHkk8UkJcDSNwlzBwOIFS
QjBd/afOXe1CAi12faPODRm55YIis8LIgy1vKKlTxjKaRYYh2uJC4PE8anv4ymRw
9/bOsbZIrLcB0Mqy7YFJZN/uFVTOPE8lw8aSN19e78fiSdoeOr+7Qo7Xf6tYuY9Y
3cWLVCHfQ5tM2kD5S4fZBe9vvXxlxkXexVWevAjHznvia/T9UQjpTb26VSTnAiHk
JCWrlVV71aqbZxGR7rvDu7zRoNCTMlN2Cj8TIF4/ETiAsZsSkZhhJyD7L+0JlyvG
LI3j6qGrZr1PmUponnEjDWAPwQWRvpdu7jlXAuikIM9RaFBkDZuDu1SEjGqrTwvP
7/VkH+NDlBrMs8ZefmQFi34EFPwkbI/sAs6md/PXgEuLxk4G9aIsx8aGuoOcKBQF
Xcq1xfg6lh/IgwlN1wJBzJfVQNpXNik1p2Z29bVM0TdqHmzVYUqY5WARlynjLWsB
jWnmlXEcdSZ3onjUYkGZTHRcJv1DtNiDYbb9gbDDZ6Cx1MlukxVIJ3rHBx6tU0uc
fgnjjQBkUV9tBVNc8tLyoXJVXy3C3fEq2h28RcyXwz4MQzFeeicxTXUMD33KksSC
DeyULb1R+JCAjB8ddBOHIUFL4lZUvIPxvMBagYk9DGm13hnRkXzrucZOSQ==
-----END CERTIFICATE-----
