Certificate:
    Data:
        Version: 3 (0x2)
        Serial Number: 18 (0x12)
    Signature Algorithm: sha1WithRSAEncryption
        Issuer: C=DE, ST=Berlin, L=Berlin, O=ZenOps, OU=Operations, CN=Certificate Signing Authority/emailAddress=hostmaster@zenops.de
        Validity
            Not Before: Jun 18 18:20:58 2013 GMT
            Not After : Jun 18 18:20:58 2014 GMT
        Subject: C=DE, ST=Berlin, L=Berlin, O=ZenOps, OU=Operations, CN=www.kanbanero.com
        Subject Public Key Info:
            Public Key Algorithm: rsaEncryption
                Public-Key: (2048 bit)
                Modulus:
                    00:a1:65:3c:ad:4c:2e:f6:56:31:a7:66:73:7c:93:
                    ce:e6:dc:fd:94:14:28:72:5c:11:ec:cc:5e:c1:a0:
                    26:80:85:7b:02:2d:d2:11:82:2d:30:d1:e8:0e:8a:
                    10:bb:27:60:3a:83:6d:ba:b2:3c:4b:3a:43:17:ea:
                    67:bf:d2:ca:16:5d:f6:85:52:a5:3c:df:fa:79:18:
                    94:e7:e6:ca:91:eb:b2:e7:ba:ac:8d:3c:3c:ff:d3:
                    95:3a:41:dd:81:07:6c:36:38:f7:d1:54:70:9a:79:
                    f8:9e:01:fd:f2:33:53:bc:d5:bd:45:94:73:1b:b1:
                    c6:ef:37:f7:e1:1f:94:b0:cb:7c:8d:a1:ca:e6:d1:
                    e7:73:01:e1:e8:a9:43:96:73:d5:90:30:63:21:02:
                    21:bc:3c:c6:33:46:2c:76:b7:85:3d:aa:b3:49:0f:
                    b3:29:bd:59:ff:a4:6c:e9:84:53:9f:bb:e3:a1:b3:
                    0b:c9:f5:a3:3d:a6:87:35:bc:94:37:53:e5:c4:3f:
                    4b:8a:57:68:a3:8c:f7:52:fe:2d:a0:0c:bc:c5:94:
                    0e:f0:4c:d2:eb:2e:25:ad:4c:cc:3f:a4:c7:34:51:
                    2f:43:5a:91:6c:d4:7e:be:d1:83:a4:20:21:44:36:
                    38:53:91:b1:f2:67:5d:4c:13:26:2b:3c:23:5b:db:
                    f9:c5
                Exponent: 65537 (0x10001)
        X509v3 extensions:
            X509v3 Basic Constraints: 
                CA:FALSE
            X509v3 Subject Key Identifier: 
                81:06:07:6C:FD:92:52:90:EB:51:72:8E:7B:E4:9A:6A:88:50:04:3C
            X509v3 Authority Key Identifier: 
                keyid:4F:4D:64:16:D3:0B:30:0C:96:E3:86:E8:D2:0F:68:20:CF:D0:DC:CD

    Signature Algorithm: sha1WithRSAEncryption
         1b:0b:c6:46:34:8f:2e:79:d9:10:cd:c7:2f:37:b5:97:ff:23:
         be:f6:d9:b6:90:33:ee:c9:de:8e:2f:dd:46:8b:b0:f8:c3:d2:
         43:bd:11:1c:71:82:4b:7e:52:d9:66:b5:dc:b9:60:b8:a9:4f:
         05:50:c2:21:4c:b8:a5:d2:fb:db:24:bf:12:92:bd:f5:08:7a:
         15:96:a2:bf:3b:1a:f5:c6:13:8f:94:f3:6c:b7:36:af:ab:69:
         ec:6c:e7:e3:c8:4f:19:4d:eb:c8:3a:41:7e:a1:a6:08:14:ca:
         b1:f4:ab:0c:24:45:dc:71:ec:1e:23:c7:6a:80:6c:67:6a:ab:
         2f:de:20:fc:b5:35:d6:12:f7:93:c8:a2:41:18:cd:39:26:27:
         54:63:fe:e9:4a:33:7d:a3:60:b5:2b:91:b9:e6:75:52:56:59:
         e8:05:63:c4:43:c1:9e:43:e8:1c:ce:ba:d0:ea:11:c5:1a:a8:
         5e:e3:29:80:92:ac:de:82:c4:2c:0f:63:83:b7:4f:31:b4:2f:
         3e:e2:93:fb:31:db:e7:7b:ae:4f:e6:f4:ce:b9:9d:be:88:8d:
         d0:1f:de:20:d1:c7:cc:38:4d:a8:78:ac:b5:a1:ce:e0:f6:fa:
         41:25:1b:0c:7d:50:c6:6a:16:04:cc:c9:fd:86:cd:db:a4:d1:
         18:14:d8:ca:d4:1f:3e:7f:fe:d2:e1:96:44:24:74:ac:6d:69:
         23:f8:0e:88:e4:de:e4:aa:8c:5d:d9:c9:10:28:33:16:27:e3:
         5c:14:ec:0e:e8:5a:59:dd:2b:4b:c1:9a:82:d0:80:9f:23:62:
         c9:ad:6b:f8:b8:24:5d:a8:ef:74:cf:3a:1b:07:6a:70:a3:4d:
         54:66:cd:10:aa:52:16:be:93:be:ba:37:de:69:e6:23:17:22:
         0c:9d:1f:50:94:2e:28:eb:7a:5c:67:f7:e4:33:3f:61:28:09:
         0e:d7:c0:2a:bd:2f:d4:47:09:1a:94:ff:b6:c4:5f:01:04:f7:
         90:bc:8e:67:77:30:fd:2f:5f:01:93:fd:50:39:15:30:b4:3f:
         c8:b7:7e:0f:23:7b:c0:9c:bc:6a:e2:0e:8c:f6:06:95:2f:d7:
         30:d3:c5:6a:d8:84:34:e2:4a:1a:33:2d:c1:83:6c:72:0c:cc:
         3f:da:63:2c:d4:fc:94:a0:b2:c9:1a:2e:66:72:fc:f7:f2:0f:
         47:b3:df:b0:51:b5:56:de:d6:24:7d:33:da:d5:b7:be:fd:a2:
         c4:f1:e5:fe:94:8b:d4:7e:78:8b:0c:5e:d1:bd:a5:f9:41:90:
         a7:f5:d2:af:19:b0:95:30:ea:47:74:44:3b:db:1d:e3:a9:25:
         c7:7d:f2:db:86:21:bb:90
-----BEGIN CERTIFICATE-----
MIIE3DCCAsSgAwIBAgIBEjANBgkqhkiG9w0BAQUFADCBojELMAkGA1UEBhMCREUx
DzANBgNVBAgTBkJlcmxpbjEPMA0GA1UEBxMGQmVybGluMQ8wDQYDVQQKEwZaZW5P
cHMxEzARBgNVBAsTCk9wZXJhdGlvbnMxJjAkBgNVBAMTHUNlcnRpZmljYXRlIFNp
Z25pbmcgQXV0aG9yaXR5MSMwIQYJKoZIhvcNAQkBFhRob3N0bWFzdGVyQHplbm9w
cy5kZTAeFw0xMzA2MTgxODIwNThaFw0xNDA2MTgxODIwNThaMHExCzAJBgNVBAYT
AkRFMQ8wDQYDVQQIEwZCZXJsaW4xDzANBgNVBAcTBkJlcmxpbjEPMA0GA1UEChMG
WmVuT3BzMRMwEQYDVQQLEwpPcGVyYXRpb25zMRowGAYDVQQDExF3d3cua2FuYmFu
ZXJvLmNvbTCCASIwDQYJKoZIhvcNAQEBBQADggEPADCCAQoCggEBAKFlPK1MLvZW
Madmc3yTzubc/ZQUKHJcEezMXsGgJoCFewIt0hGCLTDR6A6KELsnYDqDbbqyPEs6
QxfqZ7/SyhZd9oVSpTzf+nkYlOfmypHrsue6rI08PP/TlTpB3YEHbDY499FUcJp5
+J4B/fIzU7zVvUWUcxuxxu839+EflLDLfI2hyubR53MB4eipQ5Zz1ZAwYyECIbw8
xjNGLHa3hT2qs0kPsym9Wf+kbOmEU5+746GzC8n1oz2mhzW8lDdT5cQ/S4pXaKOM
91L+LaAMvMWUDvBM0usuJa1MzD+kxzRRL0NakWzUfr7Rg6QgIUQ2OFORsfJnXUwT
Jis8I1vb+cUCAwEAAaNNMEswCQYDVR0TBAIwADAdBgNVHQ4EFgQUgQYHbP2SUpDr
UXKOe+SaaohQBDwwHwYDVR0jBBgwFoAUT01kFtMLMAyW44bo0g9oIM/Q3M0wDQYJ
KoZIhvcNAQEFBQADggIBABsLxkY0jy552RDNxy83tZf/I7722baQM+7J3o4v3UaL
sPjD0kO9ERxxgkt+Utlmtdy5YLipTwVQwiFMuKXS+9skvxKSvfUIehWWor87GvXG
E4+U82y3Nq+raexs5+PITxlN68g6QX6hpggUyrH0qwwkRdxx7B4jx2qAbGdqqy/e
IPy1NdYS95PIokEYzTkmJ1Rj/ulKM32jYLUrkbnmdVJWWegFY8RDwZ5D6BzOutDq
EcUaqF7jKYCSrN6CxCwPY4O3TzG0Lz7ik/sx2+d7rk/m9M65nb6IjdAf3iDRx8w4
Tah4rLWhzuD2+kElGwx9UMZqFgTMyf2Gzduk0RgU2MrUHz5//tLhlkQkdKxtaSP4
Dojk3uSqjF3ZyRAoMxYn41wU7A7oWlndK0vBmoLQgJ8jYsmta/i4JF2o73TPOhsH
anCjTVRmzRCqUha+k766N95p5iMXIgydH1CULijrelxn9+QzP2EoCQ7XwCq9L9RH
CRqU/7bEXwEE95C8jmd3MP0vXwGT/VA5FTC0P8i3fg8je8CcvGriDoz2BpUv1zDT
xWrYhDTiShozLcGDbHIMzD/aYyzU/JSgsskaLmZy/PfyD0ez37BRtVbe1iR9M9rV
t779osTx5f6Ui9R+eIsMXtG9pflBkKf10q8ZsJUw6kd0RDvbHeOpJcd98tuGIbuQ
-----END CERTIFICATE-----
