Certificate:
    Data:
        Version: 3 (0x2)
        Serial Number: 18 (0x12)
        Signature Algorithm: sha1WithRSAEncryption
        Issuer: C=DE, ST=Berlin, L=Berlin, O=Example Com, OU=Operations, CN=Certificate Signing Authority/emailAddress=hostmaster@example.com
        Validity
            Not Before: May 24 10:48:27 2012 GMT
            Not After : May 24 10:48:27 2013 GMT
        Subject: C=DE, ST=Berlin, L=Berlin, O=Example Com, OU=Operations, CN=boca-app.com
        Subject Public Key Info:
            Public Key Algorithm: rsaEncryption
                Public-Key: (2048 bit)
                Modulus:
                    00:ae:a7:07:8f:32:9c:1c:12:57:24:d8:2e:b1:54:
                    45:aa:de:dc:97:47:4f:2a:f4:be:1d:47:19:f7:b3:
                    fe:77:6b:61:cf:1a:1e:b7:8e:cd:eb:41:ba:db:e0:
                    db:79:3e:4b:90:bc:a6:64:b3:8b:2a:8c:f2:d5:a7:
                    28:aa:5e:f2:95:fd:4a:03:bb:7c:81:9e:fa:16:e4:
                    66:aa:3f:24:81:53:3d:c0:52:3d:07:82:74:4a:01:
                    1e:76:13:ed:11:1d:cf:6e:9b:41:39:1a:d8:02:36:
                    2f:ff:a5:50:05:35:d6:4a:ac:c7:e1:12:4c:07:e5:
                    62:6e:ec:14:12:03:e2:26:a8:51:cf:c2:cd:3f:3f:
                    dd:5e:e3:21:60:92:55:18:32:ab:ae:75:6c:d6:ae:
                    cb:d5:d6:6f:21:0a:2b:82:b7:26:b3:68:ce:bd:de:
                    11:9e:c1:7b:14:0b:e9:e3:6c:1b:ee:0d:34:9b:2c:
                    60:fa:21:57:e0:7a:72:73:df:b1:5d:4c:38:48:0f:
                    2e:38:01:f3:c2:74:6d:86:ba:cd:1b:9d:91:0a:f8:
                    70:a1:ac:73:e1:34:f2:39:ae:f8:19:00:f9:ca:26:
                    e1:f6:25:19:8a:a6:36:8f:bb:e4:8c:50:15:92:a8:
                    5d:9a:6e:39:fa:dd:fc:c3:3d:10:6f:fe:d3:ee:b5:
                    f5:8f
                Exponent: 65537 (0x10001)
        X509v3 extensions:
            X509v3 Basic Constraints: 
                CA:FALSE
            X509v3 Subject Key Identifier: 
                C9:51:B8:F4:DC:38:5A:63:B2:9F:6A:5F:C4:CA:33:39:88:35:08:85
            X509v3 Authority Key Identifier: 
                keyid:50:33:E6:BF:4D:B3:66:AA:26:97:06:9B:DB:57:24:DF:C1:49:66:E3

    Signature Algorithm: sha1WithRSAEncryption
        3e:47:87:12:58:3c:6e:69:d9:e3:17:b0:f1:30:d8:46:aa:52:
        e4:a0:75:03:62:fd:ec:ed:97:2d:ba:d5:03:a2:f2:f6:ea:2d:
        e7:cb:4a:33:e1:56:ba:2b:9f:45:ff:21:f8:88:8a:90:52:21:
        33:64:7f:8e:90:91:46:ec:05:3c:52:67:e9:cb:2d:c0:41:b5:
        3c:a1:a6:80:64:4d:8d:1c:2c:e0:5f:f4:ae:dc:44:4a:e3:5c:
        76:25:61:fd:4a:45:31:c1:7a:22:c1:58:f5:93:d5:46:5b:68:
        a1:1b:90:7a:58:f1:76:52:a9:00:c8:67:4d:f4:0e:0e:4f:f4:
        c0:66:77:02:a4:8b:a1:e4:9b:fd:a4:4f:20:f7:71:e3:12:ec:
        c8:4f:00:f6:46:b4:9a:2a:bd:4e:5f:cd:0b:e6:e4:b4:a1:de:
        fd:f6:88:13:da:e0:87:ff:32:66:f2:b1:57:91:5b:02:cb:71:
        94:b3:92:8f:a8:70:cd:40:31:87:94:8c:c6:ad:d9:4e:f3:89:
        04:95:c4:96:8a:4a:0a:80:65:4f:77:65:f0:5e:2b:f0:04:61:
        4e:09:8c:56:e0:90:97:5b:7b:2c:fa:5a:d2:ba:ca:9e:3e:1a:
        10:91:29:12:aa:d7:3f:10:b1:7d:94:f9:85:00:f0:b7:24:8d:
        85:88:b6:f6:ea:e6:8f:1f:f1:e9:c8:2f:78:16:36:50:ad:a6:
        2d:89:a9:73:96:ac:39:4d:ee:6c:af:34:cf:c7:eb:38:06:9c:
        f9:d7:80:4d:c5:97:55:79:e6:42:06:15:d6:e0:9c:9d:62:96:
        0e:16:e9:0a:c8:74:32:2e:a0:37:7a:7a:18:c5:3e:cf:e4:e1:
        24:32:27:6b:04:0e:c2:1c:c4:0b:fe:e5:62:fb:49:df:a0:50:
        ce:13:20:90:ff:00:b9:7b:4e:7c:d6:e1:6a:b5:cf:23:ea:9a:
        09:f6:5a:45:32:d9:02:f1:85:ff:69:20:e2:2e:3f:00:8f:39:
        f6:18:b6:54:1a:ef:55:e5:b0:3e:ca:71:7b:d8:1c:88:bc:34:
        74:e7:f5:2b:65:3f:1e:c7:d3:72:b9:7d:13:35:18:93:19:e0:
        02:7c:d8:c0:33:3c:c5:ca:53:a0:11:bb:3b:6c:1d:1d:c5:09:
        05:6b:46:be:d7:00:10:2d:e9:d5:9a:0a:e2:a1:fb:b8:a1:da:
        04:58:a1:2b:f9:cb:38:96:e6:09:1e:95:db:8c:fe:ef:5e:d3:
        67:16:9d:56:64:1d:71:bc:e7:09:3d:36:99:5b:24:31:d0:a7:
        5f:f6:b5:05:7a:71:d0:6e:02:74:7e:fc:70:ff:cf:29:4b:c6:
        b7:78:30:5c:98:ee:37:e4
-----BEGIN CERTIFICATE-----
MIIE4zCCAsugAwIBAgIBEjANBgkqhkiG9w0BAQUFADCBqTELMAkGA1UEBhMCREUx
DzANBgNVBAgTBkJlcmxpbjEPMA0GA1UEBxMGQmVybGluMRQwEgYDVQQKEwtFeGFt
cGxlIENvbTETMBEGA1UECxMKT3BlcmF0aW9uczEmMCQGA1UEAxMdQ2VydGlmaWNh
dGUgU2lnbmluZyBBdXRob3JpdHkxJTAjBgkqhkiG9w0BCQEWFmhvc3RtYXN0ZXJA
ZXhhbXBsZS5jb20wHhcNMTIwNTI0MTA0ODI3WhcNMTMwNTI0MTA0ODI3WjBxMQsw
CQYDVQQGEwJERTEPMA0GA1UECBMGQmVybGluMQ8wDQYDVQQHEwZCZXJsaW4xFDAS
BgNVBAoTC0V4YW1wbGUgQ29tMRMwEQYDVQQLEwpPcGVyYXRpb25zMRUwEwYDVQQD
Ewxib2NhLWFwcC5jb20wggEiMA0GCSqGSIb3DQEBAQUAA4IBDwAwggEKAoIBAQCu
pwePMpwcElck2C6xVEWq3tyXR08q9L4dRxn3s/53a2HPGh63js3rQbrb4Nt5PkuQ
vKZks4sqjPLVpyiqXvKV/UoDu3yBnvoW5GaqPySBUz3AUj0HgnRKAR52E+0RHc9u
m0E5GtgCNi//pVAFNdZKrMfhEkwH5WJu7BQSA+ImqFHPws0/P91e4yFgklUYMquu
dWzWrsvV1m8hCiuCtyazaM693hGewXsUC+njbBvuDTSbLGD6IVfgenJz37FdTDhI
Dy44AfPCdG2Gus0bnZEK+HChrHPhNPI5rvgZAPnKJuH2JRmKpjaPu+SMUBWSqF2a
bjn63fzDPRBv/tPutfWPAgMBAAGjTTBLMAkGA1UdEwQCMAAwHQYDVR0OBBYEFMlR
uPTcOFpjsp9qX8TKMzmINQiFMB8GA1UdIwQYMBaAFFAz5r9Ns2aqJpcGm9tXJN/B
SWbjMA0GCSqGSIb3DQEBBQUAA4ICAQA+R4cSWDxuadnjF7DxMNhGqlLkoHUDYv3s
7ZctutUDovL26i3ny0oz4Va6K59F/yH4iIqQUiEzZH+OkJFG7AU8Umfpyy3AQbU8
oaaAZE2NHCzgX/Su3ERK41x2JWH9SkUxwXoiwVj1k9VGW2ihG5B6WPF2UqkAyGdN
9A4OT/TAZncCpIuh5Jv9pE8g93HjEuzITwD2RrSaKr1OX80L5uS0od799ogT2uCH
/zJm8rFXkVsCy3GUs5KPqHDNQDGHlIzGrdlO84kElcSWikoKgGVPd2XwXivwBGFO
CYxW4JCXW3ss+lrSusqePhoQkSkSqtc/ELF9lPmFAPC3JI2FiLb26uaPH/HpyC94
FjZQraYtialzlqw5Te5srzTPx+s4Bpz514BNxZdVeeZCBhXW4JydYpYOFukKyHQy
LqA3enoYxT7P5OEkMidrBA7CHMQL/uVi+0nfoFDOEyCQ/wC5e0581uFqtc8j6poJ
9lpFMtkC8YX/aSDiLj8Ajzn2GLZUGu9V5bA+ynF72ByIvDR05/UrZT8ex9NyuX0T
NRiTGeACfNjAMzzFylOgEbs7bB0dxQkFa0a+1wAQLenVmgriofu4odoEWKEr+cs4
luYJHpXbjP7vXtNnFp1WZB1xvOcJPTaZWyQx0Kdf9rUFenHQbgJ0fvxw/88pS8a3
eDBcmO435A==
-----END CERTIFICATE-----
