Certificate:
    Data:
        Version: 3 (0x2)
        Serial Number: 19 (0x13)
        Signature Algorithm: sha1WithRSAEncryption
        Issuer: C=DE, ST=Berlin, L=Berlin, O=Example Com, OU=Operations, CN=Certificate Signing Authority/emailAddress=hostmaster@example.com
        Validity
            Not Before: Jul  4 19:16:01 2012 GMT
            Not After : Jul  4 19:16:01 2013 GMT
        Subject: C=DE, ST=Berlin, L=Berlin, O=Example Com, OU=Operations, CN=www.kanbanero.com
        Subject Public Key Info:
            Public Key Algorithm: rsaEncryption
                Public-Key: (2048 bit)
                Modulus:
                    00:d6:36:87:21:52:89:07:aa:8a:91:a9:b3:1b:81:
                    4f:79:cb:ee:95:cc:79:3e:33:55:5a:1e:da:07:be:
                    70:79:88:9c:f2:21:02:e1:62:3d:ac:7e:ce:92:6e:
                    f4:8c:ec:ac:2c:61:e1:e1:ca:2b:53:92:89:a7:5d:
                    59:54:1b:40:51:81:78:89:c0:f8:d1:85:f6:0f:9c:
                    41:da:73:2d:a3:8a:18:b1:95:73:cc:f0:93:8b:32:
                    5e:d3:76:5b:12:21:1b:84:0c:23:d4:e9:c8:cf:c3:
                    94:58:c9:b3:7f:54:55:1a:c6:0c:60:f9:ea:a5:a9:
                    53:10:d0:d3:6c:36:13:b8:b6:f3:41:b4:e3:39:54:
                    01:67:61:4f:3e:90:f0:05:64:f1:3d:49:7d:7c:9f:
                    ac:39:45:70:22:e9:a9:c0:1c:54:35:8a:7d:88:ac:
                    e8:99:8c:ba:f4:b0:e7:12:0a:33:73:01:8f:2e:81:
                    ff:e9:d2:a5:ff:8b:cf:e5:d8:6f:5d:89:d4:24:6f:
                    18:31:56:61:86:49:76:75:25:f2:21:e3:9b:82:8d:
                    8c:3d:47:7f:ed:e4:a6:77:83:0e:f4:2c:68:80:a5:
                    ef:5b:f3:58:c7:28:2e:ad:9d:96:41:67:6a:f2:79:
                    4c:83:94:0e:88:9a:13:55:9e:a8:77:1e:35:61:81:
                    b9:1b
                Exponent: 65537 (0x10001)
        X509v3 extensions:
            X509v3 Basic Constraints: 
                CA:FALSE
            X509v3 Subject Key Identifier: 
                DC:06:E2:9F:F4:65:02:92:14:37:69:AD:27:92:76:D0:E4:06:34:5C
            X509v3 Authority Key Identifier: 
                keyid:50:33:E6:BF:4D:B3:66:AA:26:97:06:9B:DB:57:24:DF:C1:49:66:E3

    Signature Algorithm: sha1WithRSAEncryption
        a1:5e:26:70:8c:4c:90:65:42:41:44:8c:71:08:67:cd:88:29:
        b1:9e:7d:84:5e:82:d5:da:73:02:7e:c0:cc:9c:45:37:6b:63:
        02:09:41:3e:6b:0f:5f:ea:73:0a:15:40:f9:1d:c4:ca:7b:d4:
        70:f7:b3:74:17:d6:44:fe:9e:7f:5c:ed:19:4a:38:86:1f:0b:
        78:7e:fd:1d:b5:f9:d0:4f:a7:77:80:69:ec:a5:a1:7e:92:f4:
        52:15:20:37:f9:1f:10:63:a2:89:c6:6e:ea:49:b9:e0:ac:57:
        0b:1e:33:cd:89:a4:1e:c7:9f:00:ad:97:0f:16:d3:53:61:ff:
        e9:2c:7c:03:a4:a3:95:71:f7:9c:9c:d2:2a:10:16:4d:6a:6b:
        43:c1:73:d1:e6:7c:09:13:f1:f1:c8:ce:44:61:78:b8:d3:2b:
        5b:0a:a7:6e:75:02:04:d1:f5:51:8c:90:a0:70:1f:87:20:fd:
        ec:0f:42:2e:59:60:8c:0b:8d:dd:12:78:56:83:58:d5:c3:8b:
        fa:ba:68:18:62:57:96:63:1f:3c:7d:76:fd:54:88:d9:db:de:
        33:47:16:11:74:63:c4:17:a3:9e:4d:a2:cb:b9:47:31:98:fc:
        29:93:ff:71:1b:08:1e:99:be:fa:ae:f0:be:0c:0d:3c:ff:b3:
        60:3a:12:d7:10:14:8a:07:da:a1:0a:76:03:1e:06:55:35:0e:
        d1:1b:ca:ce:14:ed:0e:40:8c:c0:60:63:c6:70:75:6f:c5:00:
        d4:92:f1:66:db:8c:d9:8c:1e:83:c7:c8:b1:89:58:22:8a:64:
        71:01:35:19:df:02:3f:e6:c7:53:a3:1d:57:f3:04:4a:58:ca:
        11:08:7a:c5:60:8e:0b:53:ee:cb:49:f0:ae:7b:c7:eb:4a:46:
        6d:a5:f7:39:ae:94:7f:cc:b9:88:36:36:11:ea:f8:a4:ff:a5:
        2c:20:f1:7a:ee:07:e0:f5:66:4b:5d:a3:6f:81:82:5d:6d:b2:
        56:52:df:93:6b:b9:1f:3d:e0:a8:1a:f7:f3:52:45:22:83:6d:
        2b:af:6c:e8:d0:8f:e0:0e:1b:ab:2a:5e:1e:5e:e1:b4:35:66:
        20:08:a9:30:3d:e5:2b:d5:26:fc:00:75:ec:61:a0:94:fb:bd:
        43:16:11:b3:a1:9a:b2:5b:fe:8c:f0:c5:b1:63:73:55:88:17:
        36:93:28:96:39:a9:08:83:00:dd:c9:d7:3b:3c:83:e1:cb:cb:
        73:83:fb:d9:01:48:e6:dc:5c:84:a2:97:eb:9c:e6:1e:04:73:
        fb:b3:6a:dc:e3:ad:6b:e8:b1:7f:55:6d:7b:40:3a:31:75:9b:
        fe:bc:f1:31:83:f0:3d:84
-----BEGIN CERTIFICATE-----
MIIE6DCCAtCgAwIBAgIBEzANBgkqhkiG9w0BAQUFADCBqTELMAkGA1UEBhMCREUx
DzANBgNVBAgTBkJlcmxpbjEPMA0GA1UEBxMGQmVybGluMRQwEgYDVQQKEwtFeGFt
cGxlIENvbTETMBEGA1UECxMKT3BlcmF0aW9uczEmMCQGA1UEAxMdQ2VydGlmaWNh
dGUgU2lnbmluZyBBdXRob3JpdHkxJTAjBgkqhkiG9w0BCQEWFmhvc3RtYXN0ZXJA
ZXhhbXBsZS5jb20wHhcNMTIwNzA0MTkxNjAxWhcNMTMwNzA0MTkxNjAxWjB2MQsw
CQYDVQQGEwJERTEPMA0GA1UECBMGQmVybGluMQ8wDQYDVQQHEwZCZXJsaW4xFDAS
BgNVBAoTC0V4YW1wbGUgQ29tMRMwEQYDVQQLEwpPcGVyYXRpb25zMRowGAYDVQQD
ExF3d3cua2FuYmFuZXJvLmNvbTCCASIwDQYJKoZIhvcNAQEBBQADggEPADCCAQoC
ggEBANY2hyFSiQeqipGpsxuBT3nL7pXMeT4zVVoe2ge+cHmInPIhAuFiPax+zpJu
9IzsrCxh4eHKK1OSiaddWVQbQFGBeInA+NGF9g+cQdpzLaOKGLGVc8zwk4syXtN2
WxIhG4QMI9TpyM/DlFjJs39UVRrGDGD56qWpUxDQ02w2E7i280G04zlUAWdhTz6Q
8AVk8T1JfXyfrDlFcCLpqcAcVDWKfYis6JmMuvSw5xIKM3MBjy6B/+nSpf+Lz+XY
b12J1CRvGDFWYYZJdnUl8iHjm4KNjD1Hf+3kpneDDvQsaICl71vzWMcoLq2dlkFn
avJ5TIOUDoiaE1WeqHceNWGBuRsCAwEAAaNNMEswCQYDVR0TBAIwADAdBgNVHQ4E
FgQU3Abin/RlApIUN2mtJ5J20OQGNFwwHwYDVR0jBBgwFoAUUDPmv02zZqomlwab
21ck38FJZuMwDQYJKoZIhvcNAQEFBQADggIBAKFeJnCMTJBlQkFEjHEIZ82IKbGe
fYRegtXacwJ+wMycRTdrYwIJQT5rD1/qcwoVQPkdxMp71HD3s3QX1kT+nn9c7RlK
OIYfC3h+/R21+dBPp3eAaeyloX6S9FIVIDf5HxBjoonGbupJueCsVwseM82JpB7H
nwCtlw8W01Nh/+ksfAOko5Vx95yc0ioQFk1qa0PBc9HmfAkT8fHIzkRheLjTK1sK
p251AgTR9VGMkKBwH4cg/ewPQi5ZYIwLjd0SeFaDWNXDi/q6aBhiV5ZjHzx9dv1U
iNnb3jNHFhF0Y8QXo55Nosu5RzGY/CmT/3EbCB6Zvvqu8L4MDTz/s2A6EtcQFIoH
2qEKdgMeBlU1DtEbys4U7Q5AjMBgY8ZwdW/FANSS8WbbjNmMHoPHyLGJWCKKZHEB
NRnfAj/mx1OjHVfzBEpYyhEIesVgjgtT7stJ8K57x+tKRm2l9zmulH/MuYg2NhHq
+KT/pSwg8XruB+D1Zktdo2+Bgl1tslZS35NruR894Kga9/NSRSKDbSuvbOjQj+AO
G6sqXh5e4bQ1ZiAIqTA95SvVJvwAdexhoJT7vUMWEbOhmrJb/ozwxbFjc1WIFzaT
KJY5qQiDAN3J1zs8g+HLy3OD+9kBSObcXISil+uc5h4Ec/uzatzjrWvosX9VbXtA
OjF1m/688TGD8D2E
-----END CERTIFICATE-----
