Certificate:
    Data:
        Version: 3 (0x2)
        Serial Number: 20 (0x14)
    Signature Algorithm: sha1WithRSAEncryption
        Issuer: C=DE, ST=Berlin, L=Berlin, O=ZenOps, OU=Operations, CN=Certificate Signing Authority/emailAddress=hostmaster@zenops.de
        Validity
            Not Before: Jul 17 19:23:37 2013 GMT
            Not After : Jul 17 19:23:37 2014 GMT
        Subject: C=DE, ST=Berlin, L=Berlin, O=ZenOps, OU=Operations, CN=www.schilder-versand.com
        Subject Public Key Info:
            Public Key Algorithm: rsaEncryption
                Public-Key: (2048 bit)
                Modulus:
                    00:bd:b9:97:c8:e4:25:13:d1:91:cb:c0:49:b3:d3:
                    4c:20:e2:39:6f:0e:27:60:6a:7e:93:f9:03:17:02:
                    86:74:65:62:8a:1f:bf:0d:ad:1b:9a:2d:67:d2:6d:
                    9e:f8:86:ac:60:85:b8:8d:89:cc:e5:b3:07:76:34:
                    a0:8b:25:93:0c:e0:03:21:bf:2d:dd:94:e9:fe:89:
                    fc:bb:69:c7:05:4d:fd:d2:cd:33:c5:15:79:d7:ad:
                    40:ef:c4:48:c9:8f:ed:1d:81:d5:55:53:19:18:65:
                    89:71:31:2f:67:0a:be:10:04:9a:24:b5:cd:86:9d:
                    e6:e1:f1:4e:20:c3:9e:ad:43:30:2c:20:e6:4a:52:
                    48:04:30:c4:e7:00:c6:78:83:4b:35:aa:ab:cb:2f:
                    11:35:7f:ee:dc:2b:be:7b:13:64:4b:b9:77:6c:b7:
                    17:eb:0b:55:81:50:8f:ec:00:e5:be:3f:70:86:93:
                    b9:7d:58:81:07:f9:06:90:69:be:03:0e:3d:4e:3a:
                    f4:52:63:61:71:b3:0e:7a:66:38:7f:a3:bf:d2:d5:
                    15:4b:cb:59:8b:a7:04:44:6d:2b:ca:fd:8b:79:01:
                    b8:81:58:66:05:03:e9:7f:db:d9:d1:81:b9:55:21:
                    5f:be:40:d2:41:41:fe:11:0f:4f:25:75:59:f0:34:
                    6c:6f
                Exponent: 65537 (0x10001)
        X509v3 extensions:
            X509v3 Basic Constraints: 
                CA:FALSE
            X509v3 Subject Key Identifier: 
                7E:7D:93:CE:0A:B5:4A:0F:8D:69:44:D4:5A:DC:BF:9C:5F:EA:8C:0A
            X509v3 Authority Key Identifier: 
                keyid:4F:4D:64:16:D3:0B:30:0C:96:E3:86:E8:D2:0F:68:20:CF:D0:DC:CD

    Signature Algorithm: sha1WithRSAEncryption
         4b:b6:8b:7b:d9:bf:07:f5:a8:a0:58:b3:8f:70:13:9f:d8:0a:
         16:0f:c6:86:3e:06:c5:15:06:7b:8f:7a:b0:4b:23:05:d5:4e:
         bb:05:f4:d5:ec:15:8c:a3:b1:56:5d:6c:d1:95:d3:83:ef:df:
         1f:f4:24:0e:72:24:51:65:29:44:1e:37:86:30:f3:21:40:ed:
         99:4b:61:da:d1:cf:65:ab:8d:45:74:b7:04:b0:25:5b:0f:cd:
         95:61:32:e3:ce:c1:0a:ce:96:bb:1f:3e:4e:71:39:a4:60:10:
         ce:1f:fe:22:98:f5:41:a7:12:95:48:97:11:51:1b:8c:fd:f8:
         04:d2:fa:34:02:50:b5:2a:14:14:f6:e3:e9:98:ad:09:37:c4:
         c7:43:eb:4c:b8:ae:7c:f3:5a:e7:5a:e7:1b:63:3c:4d:84:28:
         5d:d4:37:d8:ea:4e:65:c8:dc:91:b8:9b:e8:f0:4b:a5:d3:7f:
         fd:82:a8:b8:aa:25:bf:06:b9:28:cd:67:ea:b9:38:6a:2d:16:
         ed:96:92:40:6b:12:ae:d4:c4:dd:6f:5a:c6:b1:53:9a:8b:b0:
         1e:df:e5:d6:f8:09:ec:89:6b:90:d0:af:34:c9:a6:0f:0a:29:
         12:5f:8a:7e:4d:a1:56:e9:6d:fe:ea:06:23:b8:24:5b:0d:02:
         2c:88:cd:68:3b:4e:ca:0e:a3:8b:be:a5:05:68:04:c9:18:3c:
         96:e6:2f:08:fc:0f:d8:1f:5b:da:92:82:b5:e3:33:3c:85:81:
         9f:ba:02:ab:f7:57:58:2e:21:0e:49:1e:3d:1a:d8:a4:fa:30:
         4d:1b:52:52:db:9f:ee:88:c8:42:65:5e:d7:7b:b4:08:6f:f2:
         21:59:64:d0:d8:99:cd:a0:a0:f5:b2:8f:e3:71:92:f3:24:43:
         9f:11:2a:b8:14:65:e5:9e:87:83:a2:e7:98:7e:5d:93:29:60:
         94:be:e2:03:c2:01:f7:91:53:00:fe:d8:c9:34:20:2b:76:5f:
         9b:66:73:73:32:27:5a:a5:8a:97:3c:46:5d:ed:ff:8e:82:bc:
         ae:5a:8a:3e:a1:94:86:fe:67:c7:dc:03:4c:b6:6b:61:61:4a:
         77:22:a1:f5:d6:98:72:13:a5:27:f9:14:8d:a9:2e:2c:ed:47:
         f1:40:bd:51:a3:f2:b5:8e:30:31:8c:b2:9e:83:a0:e6:01:91:
         80:38:52:99:09:e1:3b:2c:4d:8a:79:0c:2c:81:ac:8b:56:c6:
         fb:31:4f:0a:46:db:99:26:ed:87:90:9f:ba:a4:3d:31:19:52:
         32:af:74:36:a3:cf:9d:10:02:92:d0:d2:8d:64:4c:d1:15:22:
         ba:a6:8e:fe:02:0e:e7:1f
-----BEGIN CERTIFICATE-----
MIIE4zCCAsugAwIBAgIBFDANBgkqhkiG9w0BAQUFADCBojELMAkGA1UEBhMCREUx
DzANBgNVBAgTBkJlcmxpbjEPMA0GA1UEBxMGQmVybGluMQ8wDQYDVQQKEwZaZW5P
cHMxEzARBgNVBAsTCk9wZXJhdGlvbnMxJjAkBgNVBAMTHUNlcnRpZmljYXRlIFNp
Z25pbmcgQXV0aG9yaXR5MSMwIQYJKoZIhvcNAQkBFhRob3N0bWFzdGVyQHplbm9w
cy5kZTAeFw0xMzA3MTcxOTIzMzdaFw0xNDA3MTcxOTIzMzdaMHgxCzAJBgNVBAYT
AkRFMQ8wDQYDVQQIEwZCZXJsaW4xDzANBgNVBAcTBkJlcmxpbjEPMA0GA1UEChMG
WmVuT3BzMRMwEQYDVQQLEwpPcGVyYXRpb25zMSEwHwYDVQQDExh3d3cuc2NoaWxk
ZXItdmVyc2FuZC5jb20wggEiMA0GCSqGSIb3DQEBAQUAA4IBDwAwggEKAoIBAQC9
uZfI5CUT0ZHLwEmz00wg4jlvDidgan6T+QMXAoZ0ZWKKH78NrRuaLWfSbZ74hqxg
hbiNiczlswd2NKCLJZMM4AMhvy3dlOn+ify7accFTf3SzTPFFXnXrUDvxEjJj+0d
gdVVUxkYZYlxMS9nCr4QBJoktc2Gnebh8U4gw56tQzAsIOZKUkgEMMTnAMZ4g0s1
qqvLLxE1f+7cK757E2RLuXdstxfrC1WBUI/sAOW+P3CGk7l9WIEH+QaQab4DDj1O
OvRSY2Fxsw56Zjh/o7/S1RVLy1mLpwREbSvK/Yt5AbiBWGYFA+l/29nRgblVIV++
QNJBQf4RD08ldVnwNGxvAgMBAAGjTTBLMAkGA1UdEwQCMAAwHQYDVR0OBBYEFH59
k84KtUoPjWlE1Frcv5xf6owKMB8GA1UdIwQYMBaAFE9NZBbTCzAMluOG6NIPaCDP
0NzNMA0GCSqGSIb3DQEBBQUAA4ICAQBLtot72b8H9aigWLOPcBOf2AoWD8aGPgbF
FQZ7j3qwSyMF1U67BfTV7BWMo7FWXWzRldOD798f9CQOciRRZSlEHjeGMPMhQO2Z
S2Ha0c9lq41FdLcEsCVbD82VYTLjzsEKzpa7Hz5OcTmkYBDOH/4imPVBpxKVSJcR
URuM/fgE0vo0AlC1KhQU9uPpmK0JN8THQ+tMuK5881rnWucbYzxNhChd1DfY6k5l
yNyRuJvo8Eul03/9gqi4qiW/BrkozWfquThqLRbtlpJAaxKu1MTdb1rGsVOai7Ae
3+XW+AnsiWuQ0K80yaYPCikSX4p+TaFW6W3+6gYjuCRbDQIsiM1oO07KDqOLvqUF
aATJGDyW5i8I/A/YH1vakoK14zM8hYGfugKr91dYLiEOSR49Gtik+jBNG1JS25/u
iMhCZV7Xe7QIb/IhWWTQ2JnNoKD1so/jcZLzJEOfESq4FGXlnoeDoueYfl2TKWCU
vuIDwgH3kVMA/tjJNCArdl+bZnNzMidapYqXPEZd7f+OgryuWoo+oZSG/mfH3ANM
tmthYUp3IqH11phyE6Un+RSNqS4s7UfxQL1Ro/K1jjAxjLKeg6DmAZGAOFKZCeE7
LE2KeQwsgayLVsb7MU8KRtuZJu2HkJ+6pD0xGVIyr3Q2o8+dEAKS0NKNZEzRFSK6
po7+Ag7nHw==
-----END CERTIFICATE-----
