Certificate:
    Data:
        Version: 3 (0x2)
        Serial Number: 20 (0x14)
        Signature Algorithm: sha1WithRSAEncryption
        Issuer: C=DE, ST=Berlin, L=Berlin, O=Example Com, OU=Operations, CN=Certificate Signing Authority/emailAddress=hostmaster@example.com
        Validity
            Not Before: Jul 18 12:15:37 2012 GMT
            Not After : Jul 18 12:15:37 2013 GMT
        Subject: C=DE, ST=Berlin, L=Berlin, O=Example Com, OU=Operations, CN=*.boca-app.com
        Subject Public Key Info:
            Public Key Algorithm: rsaEncryption
                Public-Key: (2048 bit)
                Modulus:
                    00:cb:6d:a5:03:9f:11:f9:56:02:4e:f2:30:f3:2f:
                    48:60:17:df:6c:e3:8c:c3:cc:b5:c3:cd:ff:f4:fe:
                    a8:c8:9e:09:4e:73:df:6d:24:45:cd:ce:6a:86:88:
                    6d:0e:3f:ed:4a:06:b0:8d:fb:20:00:dc:de:d5:68:
                    7e:f9:ed:3a:96:5e:c9:bb:ee:56:ab:a4:11:37:f3:
                    fe:6b:da:19:70:9a:2a:c6:67:73:2f:a8:b3:f5:0c:
                    93:1f:e3:43:44:a4:fe:00:39:dc:1a:3a:b0:70:6d:
                    5f:44:5c:92:c2:f3:e1:d7:67:9e:38:11:0c:a9:6a:
                    9a:26:3a:92:36:90:15:f8:ae:ca:7c:1c:db:3d:e0:
                    66:12:ed:8c:d2:cb:bf:b1:16:fd:ac:c9:75:92:41:
                    78:ba:12:ff:16:ee:53:ae:6c:d2:e2:c3:cd:f5:1f:
                    74:69:8c:a9:d9:1e:83:6e:35:8c:2d:94:b8:7d:95:
                    9e:96:1b:cf:67:a9:57:7c:f9:98:06:cf:70:00:8b:
                    e5:dd:cc:0a:54:bc:5a:51:ec:7d:ed:40:30:d8:57:
                    ef:73:eb:b1:67:a7:b0:f8:ef:fc:49:fd:a1:7c:b0:
                    fc:54:53:20:98:95:d7:83:08:e2:5e:e1:64:fa:fd:
                    81:3c:b8:ae:8d:81:81:b5:9f:a1:e9:20:d5:99:b0:
                    12:53
                Exponent: 65537 (0x10001)
        X509v3 extensions:
            X509v3 Basic Constraints: 
                CA:FALSE
            X509v3 Subject Key Identifier: 
                2C:D2:AC:26:19:9E:3A:F5:C5:10:BF:AF:EE:59:6E:8E:48:1D:15:17
            X509v3 Authority Key Identifier: 
                keyid:50:33:E6:BF:4D:B3:66:AA:26:97:06:9B:DB:57:24:DF:C1:49:66:E3

    Signature Algorithm: sha1WithRSAEncryption
        1f:66:9d:a6:c5:ff:2d:8f:9b:01:b7:73:4a:66:77:ea:f5:3c:
        a5:d3:72:c0:13:08:9a:3e:21:96:e3:51:7e:c6:ed:56:18:8d:
        8f:5e:9a:a2:57:d8:82:eb:86:05:e0:35:b6:bf:08:87:96:1c:
        8e:97:12:d1:69:fd:60:7f:75:12:b4:2a:b0:92:ad:66:a4:89:
        af:a7:34:e2:26:c2:46:fc:57:17:5e:a0:53:ae:9a:b6:15:f0:
        53:d9:00:f8:f5:1b:71:42:8d:0b:71:91:ec:bb:89:ab:d6:b7:
        92:ab:9a:8e:03:b3:15:88:2e:1e:11:60:9c:f3:27:97:2c:e0:
        8c:d4:78:27:02:20:a4:b9:18:b9:7f:dd:83:9a:b6:48:52:46:
        dc:ee:4b:e8:9a:94:b9:b6:4d:44:17:a2:b0:99:f1:d7:9c:61:
        a5:d1:57:09:13:b8:82:74:ea:51:a8:4d:f5:86:52:c0:07:89:
        e7:d3:53:e9:15:bd:aa:14:b3:9a:9a:e0:6f:66:d0:75:22:9d:
        97:08:f3:ef:fc:b3:c8:11:1e:2f:54:d7:9b:01:e2:a0:71:01:
        8e:21:e5:d4:f4:48:9a:3a:f6:7d:12:3c:20:d2:63:91:42:fd:
        bd:90:cb:99:f7:71:97:7b:47:b1:e9:c6:cb:66:44:6d:5f:9d:
        3d:22:75:0e:c0:56:8f:26:76:55:7f:eb:88:ad:4c:fb:4e:e6:
        3d:ff:ab:dd:71:07:66:d9:74:f7:6f:2d:c8:cc:80:94:b3:6f:
        3b:87:00:a9:1e:c9:3e:b1:da:ae:dc:3c:c3:6a:9b:77:92:d4:
        6e:a4:f8:ea:20:d0:7b:6a:19:b9:5a:66:75:1c:e2:04:1a:66:
        d0:b4:20:b2:0e:36:a9:4c:87:1b:24:53:57:d3:29:24:15:b2:
        0a:4e:0d:24:f0:7c:78:9a:dd:ba:38:e8:6e:73:2d:d6:73:de:
        f8:26:a7:72:f0:0a:3b:ec:e7:80:65:ee:00:e4:7f:f1:bc:1e:
        43:d6:6c:ff:71:06:2f:71:8b:0b:d9:35:04:78:93:fc:e2:d8:
        8e:0e:24:e1:2a:02:3f:69:4f:ac:ec:bc:86:3d:0d:21:68:39:
        dc:e5:b8:df:be:d3:79:6f:e5:3d:24:0f:f2:c5:27:89:4c:d0:
        67:97:cc:0a:63:d9:c9:02:64:ae:8a:92:70:7b:bd:ff:95:73:
        75:6f:82:6d:a8:2e:18:8a:dc:f9:59:d4:9a:e9:5a:7d:2f:a8:
        50:44:db:21:de:5d:c4:3a:39:9e:d2:23:ce:a4:ca:86:fe:15:
        6d:b3:d6:f9:f9:2b:2a:da:ea:52:7f:1c:b9:1d:02:b0:e3:1c:
        1d:72:8d:fe:e8:0e:1e:fe
-----BEGIN CERTIFICATE-----
MIIE5TCCAs2gAwIBAgIBFDANBgkqhkiG9w0BAQUFADCBqTELMAkGA1UEBhMCREUx
DzANBgNVBAgTBkJlcmxpbjEPMA0GA1UEBxMGQmVybGluMRQwEgYDVQQKEwtFeGFt
cGxlIENvbTETMBEGA1UECxMKT3BlcmF0aW9uczEmMCQGA1UEAxMdQ2VydGlmaWNh
dGUgU2lnbmluZyBBdXRob3JpdHkxJTAjBgkqhkiG9w0BCQEWFmhvc3RtYXN0ZXJA
ZXhhbXBsZS5jb20wHhcNMTIwNzE4MTIxNTM3WhcNMTMwNzE4MTIxNTM3WjBzMQsw
CQYDVQQGEwJERTEPMA0GA1UECBMGQmVybGluMQ8wDQYDVQQHEwZCZXJsaW4xFDAS
BgNVBAoTC0V4YW1wbGUgQ29tMRMwEQYDVQQLEwpPcGVyYXRpb25zMRcwFQYDVQQD
FA4qLmJvY2EtYXBwLmNvbTCCASIwDQYJKoZIhvcNAQEBBQADggEPADCCAQoCggEB
AMttpQOfEflWAk7yMPMvSGAX32zjjMPMtcPN//T+qMieCU5z320kRc3OaoaIbQ4/
7UoGsI37IADc3tVofvntOpZeybvuVqukETfz/mvaGXCaKsZncy+os/UMkx/jQ0Sk
/gA53Bo6sHBtX0RcksLz4ddnnjgRDKlqmiY6kjaQFfiuynwc2z3gZhLtjNLLv7EW
/azJdZJBeLoS/xbuU65s0uLDzfUfdGmMqdkeg241jC2UuH2VnpYbz2epV3z5mAbP
cACL5d3MClS8WlHsfe1AMNhX73PrsWensPjv/En9oXyw/FRTIJiV14MI4l7hZPr9
gTy4ro2BgbWfoekg1ZmwElMCAwEAAaNNMEswCQYDVR0TBAIwADAdBgNVHQ4EFgQU
LNKsJhmeOvXFEL+v7llujkgdFRcwHwYDVR0jBBgwFoAUUDPmv02zZqomlwab21ck
38FJZuMwDQYJKoZIhvcNAQEFBQADggIBAB9mnabF/y2PmwG3c0pmd+r1PKXTcsAT
CJo+IZbjUX7G7VYYjY9emqJX2ILrhgXgNba/CIeWHI6XEtFp/WB/dRK0KrCSrWak
ia+nNOImwkb8VxdeoFOumrYV8FPZAPj1G3FCjQtxkey7iavWt5Krmo4DsxWILh4R
YJzzJ5cs4IzUeCcCIKS5GLl/3YOatkhSRtzuS+ialLm2TUQXorCZ8decYaXRVwkT
uIJ06lGoTfWGUsAHiefTU+kVvaoUs5qa4G9m0HUinZcI8+/8s8gRHi9U15sB4qBx
AY4h5dT0SJo69n0SPCDSY5FC/b2Qy5n3cZd7R7HpxstmRG1fnT0idQ7AVo8mdlV/
64itTPtO5j3/q91xB2bZdPdvLcjMgJSzbzuHAKkeyT6x2q7cPMNqm3eS1G6k+Oog
0HtqGblaZnUc4gQaZtC0ILIONqlMhxskU1fTKSQVsgpODSTwfHia3bo46G5zLdZz
3vgmp3LwCjvs54Bl7gDkf/G8HkPWbP9xBi9xiwvZNQR4k/zi2I4OJOEqAj9pT6zs
vIY9DSFoOdzluN++03lv5T0kD/LFJ4lM0GeXzApj2ckCZK6KknB7vf+Vc3Vvgm2o
LhiK3PlZ1JrpWn0vqFBE2yHeXcQ6OZ7SI86kyob+FW2z1vn5Kyra6lJ/HLkdArDj
HB1yjf7oDh7+
-----END CERTIFICATE-----
