Certificate:
    Data:
        Version: 3 (0x2)
        Serial Number: 23 (0x17)
    Signature Algorithm: sha1WithRSAEncryption
        Issuer: C=DE, ST=Berlin, L=Berlin, O=ZenOps, OU=Operations, CN=Certificate Signing Authority/emailAddress=hostmaster@zenops.de
        Validity
            Not Before: Aug 18 16:33:12 2013 GMT
            Not After : Aug 18 16:33:12 2014 GMT
        Subject: C=DE, ST=Berlin, L=Berlin, O=ZenOps, OU=Operations, CN=chaos.fritz.box
        Subject Public Key Info:
            Public Key Algorithm: rsaEncryption
                Public-Key: (2048 bit)
                Modulus:
                    00:cc:90:53:17:c2:3f:09:d3:d7:8d:21:f0:a1:fb:
                    c6:6f:80:cb:4f:01:4a:ae:0c:dd:25:83:5e:f8:8e:
                    9a:25:75:36:e2:e0:f6:bc:ac:0b:eb:4b:66:3f:fb:
                    ba:99:5e:98:82:9f:a9:11:d2:4d:0e:25:bb:98:2a:
                    11:ae:94:0a:76:23:a0:71:98:00:9b:4a:eb:98:7d:
                    5f:74:4c:82:85:00:1e:84:9c:0a:cd:0b:85:58:37:
                    22:cb:53:92:f0:6a:38:0b:61:ea:55:fa:ab:2f:ca:
                    23:2a:37:a0:e7:88:d2:ac:47:40:5a:78:b7:34:bb:
                    dc:19:41:d5:5f:4a:be:52:a1:ad:a5:d0:b2:c1:c7:
                    96:39:a2:a0:0a:23:45:0c:95:c1:18:62:b5:fa:ea:
                    38:d4:98:f3:26:70:31:7f:45:e3:cf:f9:68:99:a1:
                    66:96:68:1a:94:58:79:24:0c:b4:ad:a6:41:e2:88:
                    16:aa:99:67:a3:c1:df:08:a3:95:a6:98:51:87:a2:
                    9f:be:c3:29:e8:fe:a2:6e:84:a5:85:89:89:21:7d:
                    a9:36:66:21:7d:38:03:a5:51:4d:e9:43:2e:ec:f4:
                    f1:55:27:6c:e3:ce:01:e1:04:87:d1:1a:44:f0:fb:
                    e4:af:b4:31:bb:e3:d1:ef:94:82:05:5b:6e:ff:8f:
                    6f:cb
                Exponent: 65537 (0x10001)
        X509v3 extensions:
            X509v3 Basic Constraints: 
                CA:FALSE
            X509v3 Subject Key Identifier: 
                B5:CC:6E:E1:41:BA:0D:63:4B:4A:04:E8:F6:C8:9E:27:4E:D8:22:25
            X509v3 Authority Key Identifier: 
                keyid:4F:4D:64:16:D3:0B:30:0C:96:E3:86:E8:D2:0F:68:20:CF:D0:DC:CD

    Signature Algorithm: sha1WithRSAEncryption
         4a:88:1f:a2:02:03:ed:b3:af:83:2b:16:4d:54:35:8e:30:50:
         01:08:4d:f5:44:10:66:f8:01:78:c4:4e:a8:6b:0a:7c:d7:64:
         a2:3e:5e:61:bc:43:87:5d:58:c9:c7:2f:be:b5:26:ab:e9:54:
         35:0b:23:8b:9c:fe:86:fe:83:5d:67:80:6c:84:97:f2:2b:99:
         e5:a3:13:16:0c:ad:40:37:0b:3f:97:90:28:7a:72:f4:b9:c7:
         62:88:f3:54:16:79:09:0c:72:c2:fe:65:72:b3:0f:50:bb:74:
         bf:b9:a3:4e:21:a9:91:32:bc:6c:e9:93:31:17:c6:51:1a:cc:
         b5:15:ea:56:e3:60:13:db:12:ef:f2:c3:f4:aa:b3:5e:0d:8d:
         1c:68:65:f8:9f:89:98:24:1c:fb:da:5f:cf:01:3a:55:d8:9c:
         f6:a5:21:f2:28:ce:4c:d7:ed:1e:c6:d1:81:c6:bf:be:67:ae:
         e9:9e:85:25:7e:0a:8e:6c:c6:c7:1a:b6:a0:f1:e4:17:df:50:
         85:c9:bb:75:51:15:ab:81:08:26:1e:f3:43:67:9a:e4:f8:4f:
         29:51:7f:2a:12:7c:43:d3:70:e3:5a:02:54:9a:66:f3:17:8c:
         86:62:51:33:03:6b:ed:06:41:d8:86:4c:1c:52:68:61:6d:0b:
         2d:4c:8d:58:7a:46:60:85:e1:4e:43:ba:4d:29:d5:32:28:f3:
         2b:90:68:e8:63:2c:43:38:09:63:ce:79:be:7b:20:62:e5:63:
         07:b7:78:68:2d:71:20:41:cf:27:02:2b:e3:6e:28:9d:0c:e9:
         cf:43:85:f5:5f:79:2a:96:0e:fe:ef:57:67:9c:32:bd:a6:a0:
         8b:5f:2e:10:8e:af:d4:db:89:bd:3c:fc:fa:39:b0:1b:1f:79:
         e1:aa:96:b2:14:f5:36:7c:3c:07:41:b0:79:bb:b4:ca:eb:b5:
         0c:cd:86:9d:e6:59:5e:2b:cf:61:76:90:5a:52:ce:e2:2b:e3:
         7f:68:b1:08:3e:db:6f:ed:31:af:81:ad:13:d2:9e:b3:6f:e5:
         45:1f:b7:9b:11:c5:82:61:7d:65:64:c5:82:51:8c:51:29:df:
         41:0d:d0:c3:4f:14:34:1a:d5:f0:37:4b:e4:75:9d:23:95:06:
         60:73:f9:31:ef:22:10:53:13:30:bc:f4:46:d5:c6:77:75:1c:
         44:82:93:14:4a:d3:e0:a8:1f:0c:7b:03:24:42:20:22:1f:98:
         0a:ba:a9:9c:12:fb:2f:f0:ea:6d:4a:0c:98:1a:b1:36:b9:21:
         d0:87:a7:68:c8:90:1f:11:7e:6a:12:ff:37:9c:89:fe:8f:a5:
         7b:77:d1:3b:97:1a:fb:ac
-----BEGIN CERTIFICATE-----
MIIE2jCCAsKgAwIBAgIBFzANBgkqhkiG9w0BAQUFADCBojELMAkGA1UEBhMCREUx
DzANBgNVBAgTBkJlcmxpbjEPMA0GA1UEBxMGQmVybGluMQ8wDQYDVQQKEwZaZW5P
cHMxEzARBgNVBAsTCk9wZXJhdGlvbnMxJjAkBgNVBAMTHUNlcnRpZmljYXRlIFNp
Z25pbmcgQXV0aG9yaXR5MSMwIQYJKoZIhvcNAQkBFhRob3N0bWFzdGVyQHplbm9w
cy5kZTAeFw0xMzA4MTgxNjMzMTJaFw0xNDA4MTgxNjMzMTJaMG8xCzAJBgNVBAYT
AkRFMQ8wDQYDVQQIEwZCZXJsaW4xDzANBgNVBAcTBkJlcmxpbjEPMA0GA1UEChMG
WmVuT3BzMRMwEQYDVQQLEwpPcGVyYXRpb25zMRgwFgYDVQQDEw9jaGFvcy5mcml0
ei5ib3gwggEiMA0GCSqGSIb3DQEBAQUAA4IBDwAwggEKAoIBAQDMkFMXwj8J09eN
IfCh+8ZvgMtPAUquDN0lg174jpoldTbi4Pa8rAvrS2Y/+7qZXpiCn6kR0k0OJbuY
KhGulAp2I6BxmACbSuuYfV90TIKFAB6EnArNC4VYNyLLU5LwajgLYepV+qsvyiMq
N6DniNKsR0BaeLc0u9wZQdVfSr5Soa2l0LLBx5Y5oqAKI0UMlcEYYrX66jjUmPMm
cDF/RePP+WiZoWaWaBqUWHkkDLStpkHiiBaqmWejwd8Io5WmmFGHop++wyno/qJu
hKWFiYkhfak2ZiF9OAOlUU3pQy7s9PFVJ2zjzgHhBIfRGkTw++SvtDG749HvlIIF
W27/j2/LAgMBAAGjTTBLMAkGA1UdEwQCMAAwHQYDVR0OBBYEFLXMbuFBug1jS0oE
6PbInidO2CIlMB8GA1UdIwQYMBaAFE9NZBbTCzAMluOG6NIPaCDP0NzNMA0GCSqG
SIb3DQEBBQUAA4ICAQBKiB+iAgPts6+DKxZNVDWOMFABCE31RBBm+AF4xE6oawp8
12SiPl5hvEOHXVjJxy++tSar6VQ1CyOLnP6G/oNdZ4BshJfyK5nloxMWDK1ANws/
l5AoenL0ucdiiPNUFnkJDHLC/mVysw9Qu3S/uaNOIamRMrxs6ZMxF8ZRGsy1FepW
42AT2xLv8sP0qrNeDY0caGX4n4mYJBz72l/PATpV2Jz2pSHyKM5M1+0extGBxr++
Z67pnoUlfgqObMbHGrag8eQX31CFybt1URWrgQgmHvNDZ5rk+E8pUX8qEnxD03Dj
WgJUmmbzF4yGYlEzA2vtBkHYhkwcUmhhbQstTI1YekZgheFOQ7pNKdUyKPMrkGjo
YyxDOAljznm+eyBi5WMHt3hoLXEgQc8nAivjbiidDOnPQ4X1X3kqlg7+71dnnDK9
pqCLXy4Qjq/U24m9PPz6ObAbH3nhqpayFPU2fDwHQbB5u7TK67UMzYad5lleK89h
dpBaUs7iK+N/aLEIPttv7TGvga0T0p6zb+VFH7ebEcWCYX1lZMWCUYxRKd9BDdDD
TxQ0GtXwN0vkdZ0jlQZgc/kx7yIQUxMwvPRG1cZ3dRxEgpMUStPgqB8MewMkQiAi
H5gKuqmcEvsv8OptSgyYGrE2uSHQh6doyJAfEX5qEv83nIn+j6V7d9E7lxr7rA==
-----END CERTIFICATE-----
