Certificate:
    Data:
        Version: 3 (0x2)
        Serial Number: 24 (0x18)
        Signature Algorithm: sha1WithRSAEncryption
        Issuer: C=DE, ST=Berlin, L=Berlin, O=Example Com, OU=Operations, CN=Certificate Signing Authority/emailAddress=hostmaster@example.com
        Validity
            Not Before: Oct  2 09:18:42 2012 GMT
            Not After : Oct  2 09:18:42 2013 GMT
        Subject: C=DE, ST=Berlin, L=Berlin, O=Example Com, OU=Operations, CN=chariteam.de
        Subject Public Key Info:
            Public Key Algorithm: rsaEncryption
                Public-Key: (2048 bit)
                Modulus:
                    00:f1:74:bf:79:06:db:bf:26:0e:df:31:e5:ca:37:
                    9d:b9:1a:a4:b9:0a:82:62:21:30:92:06:2b:0b:9b:
                    e5:ff:09:bd:47:71:55:e6:9f:7c:f1:28:cc:48:b1:
                    5e:ed:77:05:f2:0d:e1:15:a0:fd:68:4f:67:27:de:
                    c7:b5:79:18:88:b9:60:81:eb:c3:fb:7c:f4:61:c3:
                    b1:1c:62:57:5d:88:9e:2a:32:4c:fc:2d:db:db:88:
                    da:6a:fe:84:3c:c9:49:a8:2d:17:26:95:b5:cf:ce:
                    02:cb:60:a3:d9:6f:9a:72:c7:2f:0f:3f:5b:fb:6f:
                    13:44:be:f2:44:40:ae:7a:b9:18:db:73:1c:a2:74:
                    ad:3d:04:41:78:9c:64:1f:76:46:c7:f3:12:19:89:
                    a1:3f:45:e0:5a:08:a9:52:80:cc:ab:56:4b:6c:34:
                    22:29:8f:44:a8:24:38:5d:8a:dd:fe:ba:01:54:e9:
                    e9:3a:b1:f4:45:04:94:d4:c7:a9:68:fa:24:d4:14:
                    19:c6:ef:c0:7b:22:8c:82:c2:cc:db:01:27:0b:59:
                    2a:ad:07:30:93:49:8f:10:04:ba:7c:e8:21:e8:72:
                    56:f2:7b:a6:dc:b8:3b:ee:a8:69:4c:34:73:f6:fa:
                    94:1a:6b:06:dd:de:c3:36:e8:1e:a6:c3:b5:7a:85:
                    0f:ff
                Exponent: 65537 (0x10001)
        X509v3 extensions:
            X509v3 Basic Constraints: 
                CA:FALSE
            X509v3 Subject Key Identifier: 
                74:0E:63:9A:2E:D6:C2:4F:3A:27:34:9D:14:03:82:0C:0B:3D:31:69
            X509v3 Authority Key Identifier: 
                keyid:50:33:E6:BF:4D:B3:66:AA:26:97:06:9B:DB:57:24:DF:C1:49:66:E3

    Signature Algorithm: sha1WithRSAEncryption
        6d:85:c5:a4:d7:d1:ba:b6:f1:c0:f4:d9:01:57:d9:b9:77:b8:
        b5:ab:76:1d:2b:2e:d6:9d:9a:de:6b:63:87:a6:cc:61:f9:3e:
        bc:04:a3:0a:17:fb:67:5f:5c:6d:a7:fe:7b:e2:dd:84:5a:e4:
        8f:6b:7a:a7:19:b4:06:61:96:a6:57:48:43:c5:08:f4:28:53:
        8e:69:08:22:65:f5:2c:17:99:f4:29:64:37:e2:8b:f6:bc:e9:
        98:b2:22:4f:ff:a8:7c:93:71:49:3d:7a:cf:6a:9a:1a:9d:3d:
        75:0a:a6:9a:fc:0b:41:0c:e2:e7:2b:8c:f1:ae:ec:fd:ca:11:
        02:49:a0:ec:92:a0:fb:67:bc:a7:7b:47:ef:ca:b2:66:2d:5d:
        ae:5a:99:a4:84:0a:a6:3b:d4:07:90:54:b4:7d:16:d6:12:c6:
        6e:0c:9b:58:6b:33:d1:7d:24:07:b8:53:ad:19:98:79:1a:76:
        35:c9:a0:d9:aa:9e:4e:f0:51:2c:0d:1f:00:68:d9:c2:36:87:
        3f:d0:53:3a:5c:a4:98:e8:f9:6c:d6:13:2d:1e:4d:96:db:98:
        73:7a:17:3c:bf:13:a5:f2:80:1b:11:3f:4e:a6:4d:b5:4c:b2:
        03:ee:10:48:aa:b5:fe:73:c8:d1:b0:61:99:98:6f:9c:20:b5:
        ca:d6:3e:f0:f3:46:8c:6b:a1:90:f4:85:d0:1a:21:c5:55:31:
        1a:e0:55:6f:7e:6f:e2:db:39:a5:71:ec:4d:a3:63:03:02:cc:
        91:76:5a:28:33:51:d9:80:52:27:26:b9:6a:7e:28:d1:6f:f0:
        04:9e:67:a4:25:9b:03:ab:66:30:75:af:4f:49:c5:00:25:c3:
        fd:20:2a:f2:d4:9f:d1:58:8b:bd:41:de:b0:56:2c:37:7e:ac:
        da:59:57:80:db:b6:ba:7b:b3:2e:b3:3a:ec:aa:60:84:b5:d7:
        3c:e6:8c:27:4b:68:8e:97:b4:0e:68:17:04:00:3a:a2:ef:c4:
        fa:a9:e6:db:c1:f9:b9:4a:b4:b7:1a:88:83:6c:fc:9e:8e:58:
        43:4a:c0:dc:4b:6c:08:d2:61:4e:6f:82:11:f0:b3:a9:dc:b2:
        a9:0f:69:3d:e2:46:8b:4d:05:79:fa:9a:fd:72:03:c6:99:f2:
        5b:20:b5:8d:7e:a6:e3:e1:9e:5a:e1:72:62:01:f5:fc:ad:22:
        ca:6b:8b:63:be:34:01:26:7b:ed:6d:e0:21:88:1a:58:eb:8f:
        ec:04:e3:f6:56:00:d1:54:8e:ad:c4:30:c3:7f:11:2f:2e:d2:
        c2:5f:76:ca:4b:b6:c4:6e:64:0b:e6:14:3e:fd:5c:3c:f3:0b:
        a0:92:81:8d:4d:f9:4b:14
-----BEGIN CERTIFICATE-----
MIIE4zCCAsugAwIBAgIBGDANBgkqhkiG9w0BAQUFADCBqTELMAkGA1UEBhMCREUx
DzANBgNVBAgTBkJlcmxpbjEPMA0GA1UEBxMGQmVybGluMRQwEgYDVQQKEwtFeGFt
cGxlIENvbTETMBEGA1UECxMKT3BlcmF0aW9uczEmMCQGA1UEAxMdQ2VydGlmaWNh
dGUgU2lnbmluZyBBdXRob3JpdHkxJTAjBgkqhkiG9w0BCQEWFmhvc3RtYXN0ZXJA
ZXhhbXBsZS5jb20wHhcNMTIxMDAyMDkxODQyWhcNMTMxMDAyMDkxODQyWjBxMQsw
CQYDVQQGEwJERTEPMA0GA1UECBMGQmVybGluMQ8wDQYDVQQHEwZCZXJsaW4xFDAS
BgNVBAoTC0V4YW1wbGUgQ29tMRMwEQYDVQQLEwpPcGVyYXRpb25zMRUwEwYDVQQD
EwxjaGFyaXRlYW0uZGUwggEiMA0GCSqGSIb3DQEBAQUAA4IBDwAwggEKAoIBAQDx
dL95Btu/Jg7fMeXKN525GqS5CoJiITCSBisLm+X/Cb1HcVXmn3zxKMxIsV7tdwXy
DeEVoP1oT2cn3se1eRiIuWCB68P7fPRhw7EcYlddiJ4qMkz8LdvbiNpq/oQ8yUmo
LRcmlbXPzgLLYKPZb5pyxy8PP1v7bxNEvvJEQK56uRjbcxyidK09BEF4nGQfdkbH
8xIZiaE/ReBaCKlSgMyrVktsNCIpj0SoJDhdit3+ugFU6ek6sfRFBJTUx6lo+iTU
FBnG78B7IoyCwszbAScLWSqtBzCTSY8QBLp86CHoclbye6bcuDvuqGlMNHP2+pQa
awbd3sM26B6mw7V6hQ//AgMBAAGjTTBLMAkGA1UdEwQCMAAwHQYDVR0OBBYEFHQO
Y5ou1sJPOic0nRQDggwLPTFpMB8GA1UdIwQYMBaAFFAz5r9Ns2aqJpcGm9tXJN/B
SWbjMA0GCSqGSIb3DQEBBQUAA4ICAQBthcWk19G6tvHA9NkBV9m5d7i1q3YdKy7W
nZrea2OHpsxh+T68BKMKF/tnX1xtp/574t2EWuSPa3qnGbQGYZamV0hDxQj0KFOO
aQgiZfUsF5n0KWQ34ov2vOmYsiJP/6h8k3FJPXrPapoanT11Cqaa/AtBDOLnK4zx
ruz9yhECSaDskqD7Z7yne0fvyrJmLV2uWpmkhAqmO9QHkFS0fRbWEsZuDJtYazPR
fSQHuFOtGZh5GnY1yaDZqp5O8FEsDR8AaNnCNoc/0FM6XKSY6Pls1hMtHk2W25hz
ehc8vxOl8oAbET9Opk21TLID7hBIqrX+c8jRsGGZmG+cILXK1j7w80aMa6GQ9IXQ
GiHFVTEa4FVvfm/i2zmlcexNo2MDAsyRdlooM1HZgFInJrlqfijRb/AEnmekJZsD
q2Ywda9PScUAJcP9ICry1J/RWIu9Qd6wViw3fqzaWVeA27a6e7MuszrsqmCEtdc8
5ownS2iOl7QOaBcEADqi78T6qebbwfm5SrS3GoiDbPyejlhDSsDcS2wI0mFOb4IR
8LOp3LKpD2k94kaLTQV5+pr9cgPGmfJbILWNfqbj4Z5a4XJiAfX8rSLKa4tjvjQB
JnvtbeAhiBpY64/sBOP2VgDRVI6txDDDfxEvLtLCX3bKS7bEbmQL5hQ+/Vw88wug
koGNTflLFA==
-----END CERTIFICATE-----
