Certificate:
    Data:
        Version: 3 (0x2)
        Serial Number: 25 (0x19)
        Signature Algorithm: sha1WithRSAEncryption
        Issuer: C=DE, ST=Berlin, L=Berlin, O=Example Com, OU=Operations, CN=Certificate Signing Authority/emailAddress=hostmaster@example.com
        Validity
            Not Before: Dec  2 06:49:31 2012 GMT
            Not After : Dec  2 06:49:31 2013 GMT
        Subject: C=DE, ST=Berlin, L=Berlin, O=Example Com, OU=Operations, CN=chef.zenops.net
        Subject Public Key Info:
            Public Key Algorithm: rsaEncryption
                Public-Key: (2048 bit)
                Modulus:
                    00:a7:2b:30:ec:2c:a3:00:44:93:96:8c:f3:b1:ed:
                    65:5c:62:66:47:3c:9d:69:98:86:29:b0:45:d8:95:
                    5e:a9:69:41:3b:93:ff:b5:ae:dc:ff:0c:3a:e4:56:
                    dc:d9:5b:37:8f:ca:cf:77:d6:4f:cb:16:bc:3d:42:
                    d0:2d:d8:47:af:25:48:d4:5c:20:35:35:77:e6:cf:
                    79:ad:36:6d:30:ae:53:91:45:4f:d0:08:82:b1:64:
                    5a:0c:e9:34:76:df:82:d1:05:30:81:a1:21:dc:bb:
                    d9:30:b4:38:85:92:3a:cc:d1:98:af:61:92:ab:91:
                    bf:c0:20:60:fe:8b:54:bf:97:d2:71:90:a0:97:3d:
                    5a:69:85:ad:23:b1:90:c3:58:49:e6:74:14:c6:33:
                    f8:85:25:17:5b:a2:8c:b5:de:9b:e7:d9:32:de:27:
                    8b:e0:dd:c1:31:a2:9e:2d:16:9b:7b:ac:b2:23:c9:
                    25:9e:64:e2:84:d0:ad:26:ba:eb:8b:8b:af:de:64:
                    72:0b:f8:6b:a8:53:5e:bc:ea:48:f0:0c:df:12:57:
                    9f:37:5c:26:8e:d0:4c:0f:61:7a:38:e9:2d:e2:68:
                    e5:2d:5b:e2:05:f8:73:ca:6d:d6:ff:bb:f3:0f:d5:
                    42:78:0c:3f:b0:28:03:34:f4:f5:96:13:6e:fc:40:
                    70:85
                Exponent: 65537 (0x10001)
        X509v3 extensions:
            X509v3 Basic Constraints: 
                CA:FALSE
            X509v3 Subject Key Identifier: 
                8D:E6:AE:B1:81:BC:8B:5F:1B:7C:04:94:D9:2D:5B:25:1E:B6:4E:16
            X509v3 Authority Key Identifier: 
                keyid:50:33:E6:BF:4D:B3:66:AA:26:97:06:9B:DB:57:24:DF:C1:49:66:E3

    Signature Algorithm: sha1WithRSAEncryption
        81:f9:0e:8d:e0:bb:01:3d:9c:d2:24:d5:4b:d7:12:fc:0d:2a:
        88:ea:f1:80:0e:15:47:40:6b:3c:7f:f0:bd:b8:40:18:ab:36:
        f0:a8:a6:f2:05:05:26:a3:ae:a8:15:a6:71:26:5d:df:2e:26:
        0a:25:1b:ed:89:09:fa:b6:94:5b:f5:0c:c2:e7:6d:de:8d:9c:
        63:b1:cd:d4:a5:e9:b7:91:ae:ea:19:f1:42:fc:a1:eb:d8:c6:
        65:c0:37:92:17:5c:37:ea:d3:5f:ac:d4:65:5a:d0:9b:32:cb:
        64:b6:f0:6c:63:d1:06:60:a3:ec:bf:16:ac:d2:cb:79:07:00:
        31:48:da:5f:53:f4:df:18:f2:e6:94:06:04:2a:d3:8b:20:47:
        87:38:38:e4:8c:68:75:e0:28:86:70:1b:62:22:3f:43:7f:c7:
        b7:02:d6:19:b4:33:96:df:db:87:5d:60:16:47:2c:3a:52:41:
        96:c3:f5:70:a5:ea:e1:a0:ac:f3:95:23:46:35:e2:8c:64:3b:
        e3:14:3f:61:83:95:5c:09:f0:13:bb:c7:cd:9a:44:56:d0:c6:
        0b:34:5d:0a:d4:c7:73:e5:88:e7:f2:d1:51:81:f9:78:28:65:
        13:3a:b1:bc:e6:85:83:52:19:9e:3b:22:00:53:b0:2f:bf:28:
        33:9e:47:cc:4b:89:a8:92:de:4c:17:4e:ea:a0:b0:9f:85:54:
        80:e9:05:f2:da:d0:5b:96:6a:13:19:d1:74:49:e8:14:61:10:
        23:31:36:91:63:4c:44:84:0a:86:ea:7d:80:e9:f4:db:eb:99:
        07:2d:4b:f3:12:7e:e0:94:01:11:ce:52:13:19:9f:aa:21:08:
        18:88:8c:06:30:52:02:b7:e3:85:d8:0b:58:4e:28:10:51:3e:
        76:99:52:49:fc:4f:0e:6e:14:79:70:6a:4b:49:07:67:f1:e5:
        f1:ae:40:17:0c:0c:6b:74:5f:98:a3:e1:83:9f:0c:32:8f:56:
        c4:a8:63:2a:d2:e3:47:16:91:cd:b9:92:70:f0:8e:2b:5e:76:
        42:59:1f:d4:ca:23:94:f0:a3:b0:8b:b3:3b:26:8c:4f:4d:f5:
        aa:f3:00:e9:a0:33:b0:93:62:86:10:c7:dc:51:f6:6d:b3:bc:
        8c:27:d3:13:99:5f:28:86:5c:90:d7:92:3c:58:06:60:f9:ea:
        bc:5c:bd:c5:c1:eb:13:57:09:b9:d5:05:b3:be:0b:d6:c0:a7:
        86:3a:4e:e3:09:6a:d2:e6:1e:47:4b:00:e9:51:aa:0a:72:55:
        11:d3:60:73:e4:c8:c6:fd:12:89:bc:88:6a:86:e8:68:fb:76:
        d3:f4:32:64:2c:04:21:70
-----BEGIN CERTIFICATE-----
MIIE5jCCAs6gAwIBAgIBGTANBgkqhkiG9w0BAQUFADCBqTELMAkGA1UEBhMCREUx
DzANBgNVBAgTBkJlcmxpbjEPMA0GA1UEBxMGQmVybGluMRQwEgYDVQQKEwtFeGFt
cGxlIENvbTETMBEGA1UECxMKT3BlcmF0aW9uczEmMCQGA1UEAxMdQ2VydGlmaWNh
dGUgU2lnbmluZyBBdXRob3JpdHkxJTAjBgkqhkiG9w0BCQEWFmhvc3RtYXN0ZXJA
ZXhhbXBsZS5jb20wHhcNMTIxMjAyMDY0OTMxWhcNMTMxMjAyMDY0OTMxWjB0MQsw
CQYDVQQGEwJERTEPMA0GA1UECBMGQmVybGluMQ8wDQYDVQQHEwZCZXJsaW4xFDAS
BgNVBAoTC0V4YW1wbGUgQ29tMRMwEQYDVQQLEwpPcGVyYXRpb25zMRgwFgYDVQQD
Ew9jaGVmLnplbm9wcy5uZXQwggEiMA0GCSqGSIb3DQEBAQUAA4IBDwAwggEKAoIB
AQCnKzDsLKMARJOWjPOx7WVcYmZHPJ1pmIYpsEXYlV6paUE7k/+1rtz/DDrkVtzZ
WzePys931k/LFrw9QtAt2EevJUjUXCA1NXfmz3mtNm0wrlORRU/QCIKxZFoM6TR2
34LRBTCBoSHcu9kwtDiFkjrM0ZivYZKrkb/AIGD+i1S/l9JxkKCXPVppha0jsZDD
WEnmdBTGM/iFJRdbooy13pvn2TLeJ4vg3cExop4tFpt7rLIjySWeZOKE0K0muuuL
i6/eZHIL+GuoU1686kjwDN8SV583XCaO0EwPYXo46S3iaOUtW+IF+HPKbdb/u/MP
1UJ4DD+wKAM09PWWE278QHCFAgMBAAGjTTBLMAkGA1UdEwQCMAAwHQYDVR0OBBYE
FI3mrrGBvItfG3wElNktWyUetk4WMB8GA1UdIwQYMBaAFFAz5r9Ns2aqJpcGm9tX
JN/BSWbjMA0GCSqGSIb3DQEBBQUAA4ICAQCB+Q6N4LsBPZzSJNVL1xL8DSqI6vGA
DhVHQGs8f/C9uEAYqzbwqKbyBQUmo66oFaZxJl3fLiYKJRvtiQn6tpRb9QzC523e
jZxjsc3Upem3ka7qGfFC/KHr2MZlwDeSF1w36tNfrNRlWtCbMstktvBsY9EGYKPs
vxas0st5BwAxSNpfU/TfGPLmlAYEKtOLIEeHODjkjGh14CiGcBtiIj9Df8e3AtYZ
tDOW39uHXWAWRyw6UkGWw/VwperhoKzzlSNGNeKMZDvjFD9hg5VcCfATu8fNmkRW
0MYLNF0K1Mdz5Yjn8tFRgfl4KGUTOrG85oWDUhmeOyIAU7AvvygznkfMS4mokt5M
F07qoLCfhVSA6QXy2tBblmoTGdF0SegUYRAjMTaRY0xEhAqG6n2A6fTb65kHLUvz
En7glAERzlITGZ+qIQgYiIwGMFICt+OF2AtYTigQUT52mVJJ/E8ObhR5cGpLSQdn
8eXxrkAXDAxrdF+Yo+GDnwwyj1bEqGMq0uNHFpHNuZJw8I4rXnZCWR/UyiOU8KOw
i7M7JoxPTfWq8wDpoDOwk2KGEMfcUfZts7yMJ9MTmV8ohlyQ15I8WAZg+eq8XL3F
wesTVwm51QWzvgvWwKeGOk7jCWrS5h5HSwDpUaoKclUR02Bz5MjG/RKJvIhqhuho
+3bT9DJkLAQhcA==
-----END CERTIFICATE-----
