Certificate:
    Data:
        Version: 3 (0x2)
        Serial Number: 26 (0x1a)
    Signature Algorithm: sha1WithRSAEncryption
        Issuer: C=DE, ST=Berlin, L=Berlin, O=ZenOps, OU=Operations, CN=Certificate Signing Authority/emailAddress=hostmaster@zenops.de
        Validity
            Not Before: Oct  1 11:23:40 2013 GMT
            Not After : Oct  1 11:23:40 2014 GMT
        Subject: C=DE, ST=Berlin, L=Berlin, O=ZenOps, OU=Operations, CN=bene.dev.zenops.net
        Subject Public Key Info:
            Public Key Algorithm: rsaEncryption
                Public-Key: (2048 bit)
                Modulus:
                    00:b1:f2:d6:25:65:c2:fd:5e:fe:70:e6:dd:7d:1a:
                    d5:bd:05:e0:5d:cc:f4:91:12:3d:92:35:73:40:bf:
                    43:26:07:c1:9c:91:16:6d:fc:1f:da:93:ab:50:1a:
                    b3:e3:d1:e7:6b:af:b8:90:76:da:29:2a:f4:cd:2c:
                    b7:70:e5:fd:48:5c:b8:f3:9a:a3:71:48:38:8f:44:
                    23:fb:54:be:7a:ae:3d:1d:5b:17:45:6e:b5:ad:0c:
                    61:5a:a0:1f:00:74:12:d7:a8:a5:ec:d9:c0:19:54:
                    26:5e:ef:81:e3:bf:ee:10:df:94:c6:2a:8b:a7:27:
                    db:1d:67:d8:64:a6:ac:72:4b:49:b8:41:a5:ea:47:
                    8e:a8:ac:a0:3b:f4:39:7e:cf:df:b6:dd:2c:b8:b2:
                    f6:8f:8d:05:0e:3e:fc:8f:d6:87:37:d4:ea:3b:ab:
                    f6:ac:9c:98:76:d8:90:30:a8:70:c2:05:c3:35:1d:
                    9b:38:2f:46:30:ef:ce:99:11:c8:f8:ca:65:5b:af:
                    07:99:14:a2:21:c2:8f:45:57:ee:ca:01:71:c4:d6:
                    61:d7:ea:67:18:2e:64:60:77:56:42:4f:8a:81:ae:
                    44:65:04:13:87:8d:a6:93:96:02:94:61:31:31:46:
                    f6:07:d8:bd:2c:c5:36:20:7d:ce:c2:0e:af:79:23:
                    41:23
                Exponent: 65537 (0x10001)
        X509v3 extensions:
            X509v3 Basic Constraints: 
                CA:FALSE
            X509v3 Subject Key Identifier: 
                A1:6A:7A:96:9F:FA:A9:70:85:21:63:12:75:DC:80:74:94:EA:FE:F5
            X509v3 Authority Key Identifier: 
                keyid:4F:4D:64:16:D3:0B:30:0C:96:E3:86:E8:D2:0F:68:20:CF:D0:DC:CD

    Signature Algorithm: sha1WithRSAEncryption
         02:80:73:c9:9f:7e:18:8e:21:d7:86:12:ce:b0:30:b7:9e:22:
         9a:50:69:56:8e:50:7c:34:07:2a:9d:b2:8c:79:f9:82:0a:ad:
         12:25:cf:5a:30:71:e8:21:ff:4a:f5:e0:95:ae:62:6f:dd:ba:
         65:aa:8a:e6:79:c7:b2:3b:83:dc:48:49:db:ed:57:aa:61:37:
         60:55:c3:3f:7f:cf:ac:30:c7:9a:a2:91:a3:c6:73:af:d6:81:
         29:e8:e4:b9:18:fd:f8:82:6b:de:ce:ff:70:e5:a0:e0:93:de:
         71:ff:f9:e1:2c:5d:26:8e:10:40:e6:4a:8f:74:c7:14:22:39:
         a8:ff:4c:76:dd:d4:93:4a:99:c5:cd:cd:49:99:93:45:e8:59:
         0a:6c:bf:d9:7c:03:12:32:9a:e4:4d:14:0b:54:09:ce:a4:b5:
         de:02:b7:8c:e1:b4:35:6a:57:bf:24:48:d9:6c:cd:2c:cd:f1:
         cc:02:4d:4d:fa:4e:3c:9e:49:fa:a0:59:0e:97:96:a3:83:e2:
         b8:c7:6f:63:d6:95:40:ed:5f:bd:db:66:c7:af:3c:63:c5:30:
         4e:e6:89:dc:1f:a1:bc:ac:61:3d:54:b5:24:62:75:e7:ad:55:
         8d:42:7b:7b:da:5b:97:85:e5:d1:26:46:7c:fe:40:3e:20:a5:
         c3:6a:0c:9e:e8:2f:72:54:4a:d3:06:2f:15:b6:87:d6:c9:c2:
         e3:23:4f:8a:1f:f5:c8:c0:2a:29:cb:d8:cb:d1:89:5e:2c:62:
         74:bf:54:ca:56:fe:99:a6:92:a1:d2:7b:3b:b9:d9:40:0a:a4:
         ce:88:33:07:5b:80:26:3e:0d:fd:54:67:09:a8:7e:ae:32:d1:
         35:e4:40:18:8a:8e:a5:1f:43:b4:8c:62:c6:3e:cd:7c:06:7f:
         cf:1e:5e:57:9c:fe:96:a2:5c:9e:ba:ae:5c:bf:69:07:46:07:
         64:74:c4:94:6a:34:a8:99:aa:16:f8:cf:21:a2:16:44:81:a5:
         86:da:e9:55:33:50:38:14:6c:58:bd:69:2b:0c:5a:a7:fc:24:
         68:0f:12:5a:e7:2e:c6:94:09:e4:92:1f:9a:a0:eb:95:02:1f:
         0c:5f:42:d4:f9:1e:23:c1:d2:8c:d7:5f:e5:ef:ae:89:46:15:
         fa:18:a6:d1:6b:2c:9a:29:58:ad:d5:e2:99:22:63:f4:59:52:
         3f:7b:95:4e:72:6e:7c:18:61:7f:a6:be:c9:0e:be:42:fd:a7:
         3d:94:9c:04:a6:a3:94:cf:7f:72:fb:4d:e6:47:0c:02:91:f5:
         2d:10:a6:e4:43:5e:6b:0a:0a:a7:ba:84:fc:4e:65:7e:cf:0f:
         9e:2c:60:24:b7:87:bc:35
-----BEGIN CERTIFICATE-----
MIIE3jCCAsagAwIBAgIBGjANBgkqhkiG9w0BAQUFADCBojELMAkGA1UEBhMCREUx
DzANBgNVBAgTBkJlcmxpbjEPMA0GA1UEBxMGQmVybGluMQ8wDQYDVQQKEwZaZW5P
cHMxEzARBgNVBAsTCk9wZXJhdGlvbnMxJjAkBgNVBAMTHUNlcnRpZmljYXRlIFNp
Z25pbmcgQXV0aG9yaXR5MSMwIQYJKoZIhvcNAQkBFhRob3N0bWFzdGVyQHplbm9w
cy5kZTAeFw0xMzEwMDExMTIzNDBaFw0xNDEwMDExMTIzNDBaMHMxCzAJBgNVBAYT
AkRFMQ8wDQYDVQQIEwZCZXJsaW4xDzANBgNVBAcTBkJlcmxpbjEPMA0GA1UEChMG
WmVuT3BzMRMwEQYDVQQLEwpPcGVyYXRpb25zMRwwGgYDVQQDExNiZW5lLmRldi56
ZW5vcHMubmV0MIIBIjANBgkqhkiG9w0BAQEFAAOCAQ8AMIIBCgKCAQEAsfLWJWXC
/V7+cObdfRrVvQXgXcz0kRI9kjVzQL9DJgfBnJEWbfwf2pOrUBqz49Hna6+4kHba
KSr0zSy3cOX9SFy485qjcUg4j0Qj+1S+eq49HVsXRW61rQxhWqAfAHQS16il7NnA
GVQmXu+B47/uEN+UxiqLpyfbHWfYZKascktJuEGl6keOqKygO/Q5fs/ftt0suLL2
j40FDj78j9aHN9TqO6v2rJyYdtiQMKhwwgXDNR2bOC9GMO/OmRHI+MplW68HmRSi
IcKPRVfuygFxxNZh1+pnGC5kYHdWQk+Kga5EZQQTh42mk5YClGExMUb2B9i9LMU2
IH3Owg6veSNBIwIDAQABo00wSzAJBgNVHRMEAjAAMB0GA1UdDgQWBBShanqWn/qp
cIUhYxJ13IB0lOr+9TAfBgNVHSMEGDAWgBRPTWQW0wswDJbjhujSD2ggz9DczTAN
BgkqhkiG9w0BAQUFAAOCAgEAAoBzyZ9+GI4h14YSzrAwt54imlBpVo5QfDQHKp2y
jHn5ggqtEiXPWjBx6CH/SvXgla5ib926ZaqK5nnHsjuD3EhJ2+1XqmE3YFXDP3/P
rDDHmqKRo8Zzr9aBKejkuRj9+IJr3s7/cOWg4JPecf/54SxdJo4QQOZKj3THFCI5
qP9Mdt3Uk0qZxc3NSZmTRehZCmy/2XwDEjKa5E0UC1QJzqS13gK3jOG0NWpXvyRI
2WzNLM3xzAJNTfpOPJ5J+qBZDpeWo4PiuMdvY9aVQO1fvdtmx688Y8UwTuaJ3B+h
vKxhPVS1JGJ1561VjUJ7e9pbl4Xl0SZGfP5APiClw2oMnugvclRK0wYvFbaH1snC
4yNPih/1yMAqKcvYy9GJXixidL9Uylb+maaSodJ7O7nZQAqkzogzB1uAJj4N/VRn
Cah+rjLRNeRAGIqOpR9DtIxixj7NfAZ/zx5eV5z+lqJcnrquXL9pB0YHZHTElGo0
qJmqFvjPIaIWRIGlhtrpVTNQOBRsWL1pKwxap/wkaA8SWucuxpQJ5JIfmqDrlQIf
DF9C1PkeI8HSjNdf5e+uiUYV+him0WssmilYrdXimSJj9FlSP3uVTnJufBhhf6a+
yQ6+Qv2nPZScBKajlM9/cvtN5kcMApH1LRCm5ENeawoKp7qE/E5lfs8PnixgJLeH
vDU=
-----END CERTIFICATE-----
