Certificate:
    Data:
        Version: 3 (0x2)
        Serial Number: 26 (0x1a)
        Signature Algorithm: sha1WithRSAEncryption
        Issuer: C=DE, ST=Berlin, L=Berlin, O=Example Com, OU=Operations, CN=Certificate Signing Authority/emailAddress=hostmaster@example.com
        Validity
            Not Before: Dec  2 06:49:31 2012 GMT
            Not After : Dec  2 06:49:31 2013 GMT
        Subject: C=DE, ST=Berlin, L=Berlin, O=Example Com, OU=Operations, CN=dev.zentoo.org
        Subject Public Key Info:
            Public Key Algorithm: rsaEncryption
                Public-Key: (2048 bit)
                Modulus:
                    00:94:0d:14:21:90:5d:54:22:fa:0c:7c:0c:21:c1:
                    73:4f:0e:7f:3e:f3:e5:74:61:eb:1a:58:64:68:58:
                    31:21:b4:b8:59:e3:81:a1:f5:eb:a8:ca:d1:a6:9a:
                    70:19:bd:c0:06:77:89:85:34:78:95:33:d3:d1:69:
                    96:ad:15:32:98:d3:63:e1:d8:08:bb:80:ee:59:4c:
                    e7:c1:c2:00:51:00:a4:9d:a6:20:b8:67:81:7c:37:
                    21:a8:9b:46:bf:76:8e:b0:4e:3c:c8:af:18:ba:8b:
                    ca:82:08:df:19:2b:0e:d5:25:21:3b:3f:6a:e1:e6:
                    40:59:1d:23:e9:86:32:ce:a7:4a:a0:c2:db:27:6b:
                    fa:e6:bb:4c:5c:b2:db:19:75:29:c3:ea:a4:1f:03:
                    f3:67:e5:9e:9b:12:55:73:dc:09:f4:5f:88:8a:85:
                    ae:d6:3c:e9:15:73:9a:c5:b9:5a:d1:32:e3:9c:09:
                    de:43:32:df:94:fc:ec:a2:10:af:8d:69:a5:81:ff:
                    17:ab:b8:68:e0:dc:2b:35:8d:61:cf:94:a0:f0:09:
                    d2:18:e6:08:63:29:f1:0c:4a:d7:42:3f:7d:aa:fb:
                    f2:85:ef:c8:26:81:2d:0a:6b:72:62:7e:8e:af:88:
                    eb:1e:62:1a:f9:8a:5c:25:50:00:d5:d4:8e:1e:bc:
                    53:ef
                Exponent: 65537 (0x10001)
        X509v3 extensions:
            X509v3 Basic Constraints: 
                CA:FALSE
            X509v3 Subject Key Identifier: 
                FC:A3:6C:05:37:12:6D:B0:50:CE:05:69:18:48:5D:A6:67:67:08:1D
            X509v3 Authority Key Identifier: 
                keyid:50:33:E6:BF:4D:B3:66:AA:26:97:06:9B:DB:57:24:DF:C1:49:66:E3

    Signature Algorithm: sha1WithRSAEncryption
        02:34:8f:f5:cb:0f:4c:f6:71:bc:ac:d5:68:64:01:e5:4b:55:
        69:d3:e3:cc:b1:c2:28:09:ee:61:3b:17:80:84:96:83:04:e0:
        c3:ed:41:9e:f6:3b:b3:9f:41:ff:1f:b6:18:24:43:3f:ed:11:
        05:60:e1:b3:cb:be:12:5a:c1:07:a2:21:29:94:b8:b8:4d:d1:
        3d:ae:f6:fe:cb:96:7c:fb:4c:4b:94:09:4b:c0:7b:ae:55:07:
        07:93:a2:56:b4:98:e3:5a:87:e9:31:a6:71:f3:0f:66:d9:62:
        99:b2:21:3e:34:54:1b:5c:80:0a:55:9f:b9:fe:3c:8b:15:06:
        09:33:55:b7:a0:b9:96:0f:35:0e:4f:c9:87:5f:c2:65:f7:74:
        94:4f:36:66:26:87:0b:d7:0e:d0:d0:7c:20:80:7b:13:e2:87:
        b7:d1:61:bc:76:f7:8f:54:c2:ef:c5:b8:3e:9d:23:e7:d8:a5:
        da:cb:8d:74:96:83:e3:52:77:f5:7d:cc:8d:07:4c:db:8c:32:
        c9:4e:36:d0:ae:fe:51:d9:5a:02:4c:7a:f6:e7:55:65:c1:a5:
        4a:77:33:e4:e4:46:1e:b0:95:c5:d4:d3:d2:dd:91:10:49:60:
        18:12:a1:bd:51:54:a7:03:38:ad:c1:84:3d:28:7d:46:a7:8a:
        14:4b:1e:71:b4:54:6e:55:6f:37:0a:5b:db:a9:e5:eb:3d:02:
        b5:40:df:77:c2:0e:c0:c8:a8:5a:a0:76:08:aa:94:cc:1f:08:
        b1:ff:61:a6:91:3b:90:2c:2e:f4:c5:62:5c:bf:cf:10:7a:b1:
        e5:70:5d:17:77:37:1e:17:02:40:02:ad:d4:a8:2a:ac:23:a8:
        4d:a7:03:97:22:85:0d:64:22:9b:24:77:46:12:63:68:e3:cb:
        1d:38:db:c5:bf:75:00:cf:0f:49:24:9b:c9:38:90:fe:5b:45:
        64:be:9d:fe:54:78:ac:06:dc:88:ad:34:65:95:cd:03:a9:a9:
        88:cd:00:8e:f5:8e:b6:dc:20:ec:b8:fa:ec:33:58:38:52:ca:
        1e:49:7a:f6:2a:d1:87:0a:fd:c2:5e:92:ee:b8:f1:da:e7:e2:
        97:40:90:6e:2d:3e:40:7d:64:b9:5d:99:36:b2:89:c3:73:10:
        ed:ac:5f:38:f7:4d:a4:67:77:f6:ce:4b:45:99:26:01:f8:25:
        15:a8:86:44:12:5a:2d:be:dc:d6:88:12:df:48:b6:42:98:43:
        ee:99:c4:42:19:d2:70:9c:41:47:26:26:3e:88:a6:59:63:0b:
        06:33:74:df:6f:23:36:e2:26:45:3d:3b:83:21:8b:5f:38:bd:
        67:13:a3:e4:bc:f2:fb:51
-----BEGIN CERTIFICATE-----
MIIE5TCCAs2gAwIBAgIBGjANBgkqhkiG9w0BAQUFADCBqTELMAkGA1UEBhMCREUx
DzANBgNVBAgTBkJlcmxpbjEPMA0GA1UEBxMGQmVybGluMRQwEgYDVQQKEwtFeGFt
cGxlIENvbTETMBEGA1UECxMKT3BlcmF0aW9uczEmMCQGA1UEAxMdQ2VydGlmaWNh
dGUgU2lnbmluZyBBdXRob3JpdHkxJTAjBgkqhkiG9w0BCQEWFmhvc3RtYXN0ZXJA
ZXhhbXBsZS5jb20wHhcNMTIxMjAyMDY0OTMxWhcNMTMxMjAyMDY0OTMxWjBzMQsw
CQYDVQQGEwJERTEPMA0GA1UECBMGQmVybGluMQ8wDQYDVQQHEwZCZXJsaW4xFDAS
BgNVBAoTC0V4YW1wbGUgQ29tMRMwEQYDVQQLEwpPcGVyYXRpb25zMRcwFQYDVQQD
Ew5kZXYuemVudG9vLm9yZzCCASIwDQYJKoZIhvcNAQEBBQADggEPADCCAQoCggEB
AJQNFCGQXVQi+gx8DCHBc08Ofz7z5XRh6xpYZGhYMSG0uFnjgaH166jK0aaacBm9
wAZ3iYU0eJUz09Fplq0VMpjTY+HYCLuA7llM58HCAFEApJ2mILhngXw3IaibRr92
jrBOPMivGLqLyoII3xkrDtUlITs/auHmQFkdI+mGMs6nSqDC2ydr+ua7TFyy2xl1
KcPqpB8D82flnpsSVXPcCfRfiIqFrtY86RVzmsW5WtEy45wJ3kMy35T87KIQr41p
pYH/F6u4aODcKzWNYc+UoPAJ0hjmCGMp8QxK10I/far78oXvyCaBLQprcmJ+jq+I
6x5iGvmKXCVQANXUjh68U+8CAwEAAaNNMEswCQYDVR0TBAIwADAdBgNVHQ4EFgQU
/KNsBTcSbbBQzgVpGEhdpmdnCB0wHwYDVR0jBBgwFoAUUDPmv02zZqomlwab21ck
38FJZuMwDQYJKoZIhvcNAQEFBQADggIBAAI0j/XLD0z2cbys1WhkAeVLVWnT48yx
wigJ7mE7F4CEloME4MPtQZ72O7OfQf8fthgkQz/tEQVg4bPLvhJawQeiISmUuLhN
0T2u9v7Llnz7TEuUCUvAe65VBweTola0mONah+kxpnHzD2bZYpmyIT40VBtcgApV
n7n+PIsVBgkzVbeguZYPNQ5PyYdfwmX3dJRPNmYmhwvXDtDQfCCAexPih7fRYbx2
949Uwu/FuD6dI+fYpdrLjXSWg+NSd/V9zI0HTNuMMslONtCu/lHZWgJMevbnVWXB
pUp3M+TkRh6wlcXU09LdkRBJYBgSob1RVKcDOK3BhD0ofUanihRLHnG0VG5VbzcK
W9up5es9ArVA33fCDsDIqFqgdgiqlMwfCLH/YaaRO5AsLvTFYly/zxB6seVwXRd3
Nx4XAkACrdSoKqwjqE2nA5cihQ1kIpskd0YSY2jjyx0428W/dQDPD0kkm8k4kP5b
RWS+nf5UeKwG3IitNGWVzQOpqYjNAI71jrbcIOy4+uwzWDhSyh5JevYq0YcK/cJe
ku648drn4pdAkG4tPkB9ZLldmTayicNzEO2sXzj3TaRnd/bOS0WZJgH4JRWohkQS
Wi2+3NaIEt9ItkKYQ+6ZxEIZ0nCcQUcmJj6IplljCwYzdN9vIzbiJkU9O4Mhi184
vWcTo+S88vtR
-----END CERTIFICATE-----
