Certificate:
    Data:
        Version: 3 (0x2)
        Serial Number: 27 (0x1b)
        Signature Algorithm: sha1WithRSAEncryption
        Issuer: C=DE, ST=Berlin, L=Berlin, O=Example Com, OU=Operations, CN=Certificate Signing Authority/emailAddress=hostmaster@example.com
        Validity
            Not Before: Dec 16 22:26:24 2012 GMT
            Not After : Dec 16 22:26:24 2013 GMT
        Subject: C=DE, ST=Berlin, L=Berlin, O=Example Com, OU=Operations, CN=linux-vserver.org
        Subject Public Key Info:
            Public Key Algorithm: rsaEncryption
                Public-Key: (2048 bit)
                Modulus:
                    00:cb:b4:b5:9b:ff:ac:1b:60:5f:b8:be:30:45:a3:
                    59:b7:66:ce:5a:4f:fc:17:3f:36:9c:69:63:4d:29:
                    48:c2:4b:30:c5:67:83:50:b1:bd:62:32:ba:55:e6:
                    d5:b6:a2:f5:15:f3:b0:12:71:8f:c0:3e:9b:6d:1d:
                    0a:f0:cd:f7:16:79:63:41:2a:77:3f:e9:0c:45:e2:
                    f8:a7:d3:ad:21:d3:21:96:13:66:0a:3d:ff:ff:a3:
                    53:19:18:85:9a:31:c6:f4:41:6a:7a:45:ad:3b:dd:
                    fa:79:89:94:17:78:c6:d2:6a:9f:cf:9e:46:9a:03:
                    2a:98:7f:07:11:fd:32:bc:b4:f9:e6:f2:4a:3c:42:
                    c5:27:56:52:1e:e2:19:59:5f:9e:fe:b8:d4:82:88:
                    ec:be:0e:c4:47:dd:de:ed:8e:2c:34:1f:0c:ca:3b:
                    85:2e:49:5b:d9:e3:7b:1e:f1:0d:6e:b6:98:a9:73:
                    8d:92:bb:4d:9e:28:64:18:44:70:52:26:8e:9d:57:
                    e2:5f:0a:c3:0c:36:18:b1:9c:5d:e9:8f:27:75:38:
                    33:f2:5c:13:24:c3:14:02:6c:a1:27:bc:72:4c:cf:
                    50:54:9b:ae:22:37:d5:de:b2:58:04:0d:d5:8f:cd:
                    f5:27:f6:86:69:fd:9b:f5:be:71:63:2e:77:42:b8:
                    d5:53
                Exponent: 65537 (0x10001)
        X509v3 extensions:
            X509v3 Basic Constraints: 
                CA:FALSE
            X509v3 Subject Key Identifier: 
                12:3B:00:B1:0E:58:BF:F3:E8:64:0A:B9:AB:D1:05:F8:59:8A:75:5E
            X509v3 Authority Key Identifier: 
                keyid:50:33:E6:BF:4D:B3:66:AA:26:97:06:9B:DB:57:24:DF:C1:49:66:E3

    Signature Algorithm: sha1WithRSAEncryption
        90:59:3f:c9:73:3e:a9:5e:85:7f:2c:b9:65:ce:d0:d3:3b:ed:
        27:b0:de:02:b0:70:5d:5e:6e:1e:3f:23:48:52:8f:03:31:39:
        5a:55:6e:7b:19:cc:a9:8d:76:69:24:06:9e:b8:12:82:7a:a3:
        dd:bd:ba:76:c5:e6:a5:f3:37:54:8c:64:93:57:cd:1e:6f:2d:
        ad:65:a6:40:9b:f8:38:59:08:de:7f:51:bc:45:37:96:b2:d7:
        b2:90:dc:49:b7:95:d8:f4:a4:a7:d2:ac:c8:dd:af:6d:3f:b8:
        de:39:65:59:d5:58:f4:f2:9f:da:e2:39:df:06:5c:6a:ce:4f:
        99:86:24:62:2f:af:8f:66:6a:24:ef:3d:77:56:f0:77:b5:74:
        1a:5b:0c:b7:3e:dc:a8:21:55:c7:5e:81:6a:0c:d7:12:7c:5b:
        95:fa:c6:25:e2:f9:b5:fe:c9:df:d5:70:b5:60:26:19:81:53:
        e9:cf:4b:01:1b:ce:f4:6d:13:9b:06:a7:87:82:da:47:6e:3a:
        02:08:4e:4c:16:31:ab:69:40:52:12:54:f1:7a:42:c7:36:13:
        de:31:c6:b5:de:ec:37:23:e6:d6:be:8e:56:37:dd:a6:6d:60:
        63:10:f6:b5:10:03:48:6d:fa:52:ba:31:6f:7e:b6:ac:d6:f9:
        93:9e:09:49:7a:83:2b:0e:22:dc:fb:59:a6:46:9c:a0:fc:5d:
        30:64:78:6f:0d:ef:24:c2:e9:77:6b:04:34:14:9a:47:55:3f:
        40:02:e0:db:26:5b:38:19:6d:af:6d:ce:49:41:07:a7:50:dd:
        69:9b:f7:e6:48:ba:51:b3:bb:83:c3:77:27:3c:e4:c0:7e:06:
        47:56:f1:ff:94:dd:59:eb:9c:00:2f:74:66:6d:60:ae:bc:bb:
        0e:ad:2b:be:10:c2:f9:53:bb:c3:d0:79:b4:af:df:55:cb:a0:
        11:40:f8:07:7d:86:80:ae:36:03:76:11:26:28:b0:d5:f6:77:
        40:0b:9f:b6:ec:1d:07:f6:07:95:b8:b8:02:64:2f:b2:4e:b6:
        c3:3f:74:0a:08:12:78:40:38:73:8c:3f:24:bf:0e:bb:5f:3b:
        f5:d7:2b:7b:38:87:8f:25:16:37:d0:69:dd:54:40:46:f1:6c:
        0e:e8:dd:0f:5f:bf:0e:20:b6:16:f6:fa:5c:0a:1c:e6:fd:4b:
        40:b2:ff:e5:fa:23:51:ac:bf:c5:3f:4b:d1:07:cc:01:4e:23:
        be:f1:70:b0:0c:d5:8b:57:76:bf:e0:79:47:43:d4:cf:f8:c5:
        6d:e0:e1:1c:0b:3a:58:8c:6d:26:38:e8:5b:29:33:cb:d9:c4:
        37:32:08:c6:b5:45:33:f5
-----BEGIN CERTIFICATE-----
MIIE6DCCAtCgAwIBAgIBGzANBgkqhkiG9w0BAQUFADCBqTELMAkGA1UEBhMCREUx
DzANBgNVBAgTBkJlcmxpbjEPMA0GA1UEBxMGQmVybGluMRQwEgYDVQQKEwtFeGFt
cGxlIENvbTETMBEGA1UECxMKT3BlcmF0aW9uczEmMCQGA1UEAxMdQ2VydGlmaWNh
dGUgU2lnbmluZyBBdXRob3JpdHkxJTAjBgkqhkiG9w0BCQEWFmhvc3RtYXN0ZXJA
ZXhhbXBsZS5jb20wHhcNMTIxMjE2MjIyNjI0WhcNMTMxMjE2MjIyNjI0WjB2MQsw
CQYDVQQGEwJERTEPMA0GA1UECBMGQmVybGluMQ8wDQYDVQQHEwZCZXJsaW4xFDAS
BgNVBAoTC0V4YW1wbGUgQ29tMRMwEQYDVQQLEwpPcGVyYXRpb25zMRowGAYDVQQD
ExFsaW51eC12c2VydmVyLm9yZzCCASIwDQYJKoZIhvcNAQEBBQADggEPADCCAQoC
ggEBAMu0tZv/rBtgX7i+MEWjWbdmzlpP/Bc/NpxpY00pSMJLMMVng1CxvWIyulXm
1bai9RXzsBJxj8A+m20dCvDN9xZ5Y0Eqdz/pDEXi+KfTrSHTIZYTZgo9//+jUxkY
hZoxxvRBanpFrTvd+nmJlBd4xtJqn8+eRpoDKph/BxH9Mry0+ebySjxCxSdWUh7i
GVlfnv641IKI7L4OxEfd3u2OLDQfDMo7hS5JW9njex7xDW62mKlzjZK7TZ4oZBhE
cFImjp1X4l8Kwww2GLGcXemPJ3U4M/JcEyTDFAJsoSe8ckzPUFSbriI31d6yWAQN
1Y/N9Sf2hmn9m/W+cWMud0K41VMCAwEAAaNNMEswCQYDVR0TBAIwADAdBgNVHQ4E
FgQUEjsAsQ5Yv/PoZAq5q9EF+FmKdV4wHwYDVR0jBBgwFoAUUDPmv02zZqomlwab
21ck38FJZuMwDQYJKoZIhvcNAQEFBQADggIBAJBZP8lzPqlehX8suWXO0NM77Sew
3gKwcF1ebh4/I0hSjwMxOVpVbnsZzKmNdmkkBp64EoJ6o929unbF5qXzN1SMZJNX
zR5vLa1lpkCb+DhZCN5/UbxFN5ay17KQ3Em3ldj0pKfSrMjdr20/uN45ZVnVWPTy
n9riOd8GXGrOT5mGJGIvr49maiTvPXdW8He1dBpbDLc+3KghVcdegWoM1xJ8W5X6
xiXi+bX+yd/VcLVgJhmBU+nPSwEbzvRtE5sGp4eC2kduOgIITkwWMatpQFISVPF6
Qsc2E94xxrXe7Dcj5ta+jlY33aZtYGMQ9rUQA0ht+lK6MW9+tqzW+ZOeCUl6gysO
Itz7WaZGnKD8XTBkeG8N7yTC6XdrBDQUmkdVP0AC4NsmWzgZba9tzklBB6dQ3Wmb
9+ZIulGzu4PDdyc85MB+BkdW8f+U3VnrnAAvdGZtYK68uw6tK74QwvlTu8PQebSv
31XLoBFA+Ad9hoCuNgN2ESYosNX2d0ALn7bsHQf2B5W4uAJkL7JOtsM/dAoIEnhA
OHOMPyS/DrtfO/XXK3s4h48lFjfQad1UQEbxbA7o3Q9fvw4gthb2+lwKHOb9S0Cy
/+X6I1Gsv8U/S9EHzAFOI77xcLAM1YtXdr/geUdD1M/4xW3g4RwLOliMbSY46Fsp
M8vZxDcyCMa1RTP1
-----END CERTIFICATE-----
