Certificate:
    Data:
        Version: 3 (0x2)
        Serial Number: 28 (0x1c)
    Signature Algorithm: sha1WithRSAEncryption
        Issuer: C=DE, ST=Berlin, L=Berlin, O=ZenOps, OU=Operations, CN=Certificate Signing Authority/emailAddress=hostmaster@zenops.de
        Validity
            Not Before: Oct 11 12:51:24 2013 GMT
            Not After : Oct 11 12:51:24 2014 GMT
        Subject: C=DE, ST=Berlin, L=Berlin, O=ZenOps, OU=Operations, CN=wiki.zenops.net
        Subject Public Key Info:
            Public Key Algorithm: rsaEncryption
                Public-Key: (2048 bit)
                Modulus:
                    00:ab:fc:9e:64:74:d8:a7:b5:42:ef:15:76:61:ea:
                    99:90:aa:8c:54:0a:9b:67:df:36:ae:46:60:e8:eb:
                    5d:1d:1e:cf:e8:d7:72:1b:88:87:62:8d:63:7d:4f:
                    d3:5e:a2:38:d8:32:5b:27:64:d1:19:40:26:c1:f7:
                    af:cb:e6:8f:a9:c5:48:ac:c9:fb:e8:c0:44:e2:fa:
                    7f:7a:87:05:bf:5e:f2:71:c4:4c:45:78:39:04:35:
                    a9:6d:33:6d:14:ef:b9:69:6e:a7:67:1c:c8:dd:0a:
                    17:27:b3:21:5c:50:7c:4e:fa:39:dd:e5:43:c1:6c:
                    03:6e:31:39:bd:6a:4f:03:60:ce:f0:2f:b5:6c:0e:
                    06:a9:ae:f3:46:8c:ee:73:63:74:ea:2b:f9:f2:19:
                    86:fb:97:11:30:ae:96:2e:c5:38:8d:dd:52:56:dd:
                    55:bd:90:9a:51:94:60:8e:1e:be:37:a4:4f:58:44:
                    3e:29:51:24:03:dd:14:2a:d9:f3:62:b3:14:16:51:
                    99:d3:0e:4c:8f:1e:d1:4e:91:e3:1f:4c:8d:5c:95:
                    60:87:be:c9:fb:20:4f:50:91:9a:07:9c:68:b1:e7:
                    55:e0:4e:c3:ca:66:81:f6:88:15:56:ef:5e:19:8d:
                    f1:67:4b:5d:bc:48:19:4f:5f:fa:e8:84:d8:7f:12:
                    f5:97
                Exponent: 65537 (0x10001)
        X509v3 extensions:
            X509v3 Basic Constraints: 
                CA:FALSE
            X509v3 Subject Key Identifier: 
                BA:1E:50:DD:A3:96:1E:19:CB:82:3C:36:CC:B4:BF:C5:91:AA:9A:85
            X509v3 Authority Key Identifier: 
                keyid:4F:4D:64:16:D3:0B:30:0C:96:E3:86:E8:D2:0F:68:20:CF:D0:DC:CD

    Signature Algorithm: sha1WithRSAEncryption
         b0:66:94:ec:40:af:bf:45:eb:11:02:f0:8f:42:ab:19:ff:d4:
         3d:54:fe:9c:26:6c:02:2b:53:2e:95:b2:30:f3:f8:31:38:c1:
         b0:0e:74:e8:84:49:03:e5:86:bd:b1:76:df:76:35:f3:b3:32:
         4c:a3:de:3a:0a:8e:d6:fb:e0:f2:71:c9:ed:0a:9f:95:6d:db:
         18:e1:34:70:83:69:53:0c:d2:5b:43:7d:23:5f:ad:1d:12:2a:
         2f:95:83:f9:1a:c8:86:67:ec:9d:5d:4a:c6:16:a1:31:6b:2b:
         94:9f:9e:51:ce:a1:ac:ad:98:79:da:7d:42:b1:98:02:12:66:
         1d:51:1d:d4:c6:5f:47:4f:d5:fa:92:82:4a:fb:87:6d:3a:cb:
         12:aa:46:fb:e5:af:4e:1d:c3:96:68:26:73:ec:0b:13:24:67:
         0f:38:35:e7:af:2e:c6:e4:72:a0:86:5d:26:79:8b:7a:3f:2c:
         17:85:8e:b4:ca:e7:18:b4:af:0c:a7:08:69:42:e6:ce:38:69:
         14:f8:39:8e:7f:ba:0a:8f:3b:10:d5:a2:d4:35:d1:b1:03:59:
         fd:83:0e:86:37:74:1d:b4:41:92:cc:b3:1b:09:a4:8a:83:01:
         37:37:8d:1c:34:4f:8b:9c:ae:f2:80:99:47:be:5e:da:88:3b:
         a0:71:92:8b:ad:93:2f:d9:de:68:84:8c:47:67:ba:be:9d:03:
         c6:4d:74:16:34:56:2a:7d:a3:58:f8:59:4a:e7:de:71:92:5f:
         3e:3a:1c:01:b4:56:8a:c1:ce:4b:e0:aa:d6:ae:eb:b0:83:77:
         78:b4:f8:10:bd:d7:90:80:ae:8f:64:a6:de:0f:20:5a:5e:7d:
         ca:8d:a1:1c:3a:02:0c:85:2e:7a:a9:cd:38:6d:e0:de:8b:43:
         bf:c0:17:d0:d7:39:43:da:2a:d9:d2:17:2a:b0:b4:35:5e:42:
         ca:96:62:c4:c4:98:63:58:35:b5:4d:ac:4d:44:70:a3:6e:73:
         50:9c:fa:79:3e:d1:79:38:35:30:89:6a:05:ee:08:f2:26:d0:
         14:12:89:16:08:8b:bf:89:fb:fc:6b:95:87:1b:2d:15:ac:44:
         bf:96:1d:db:3c:41:7c:92:e2:51:c0:3f:de:f0:f8:43:78:f8:
         2e:18:66:c3:48:12:2d:0f:c1:7a:08:a2:11:70:f1:a0:86:08:
         eb:38:09:17:35:99:e2:f7:2c:50:c5:3e:1b:a0:03:a9:26:a5:
         7a:8d:75:b0:21:c1:c7:d0:00:79:9f:c5:29:99:b7:68:8b:ea:
         51:60:73:3f:3c:9f:b6:f8:a3:34:e7:51:83:57:21:29:59:90:
         17:12:8a:0e:e0:2a:02:bd
-----BEGIN CERTIFICATE-----
MIIE2jCCAsKgAwIBAgIBHDANBgkqhkiG9w0BAQUFADCBojELMAkGA1UEBhMCREUx
DzANBgNVBAgTBkJlcmxpbjEPMA0GA1UEBxMGQmVybGluMQ8wDQYDVQQKEwZaZW5P
cHMxEzARBgNVBAsTCk9wZXJhdGlvbnMxJjAkBgNVBAMTHUNlcnRpZmljYXRlIFNp
Z25pbmcgQXV0aG9yaXR5MSMwIQYJKoZIhvcNAQkBFhRob3N0bWFzdGVyQHplbm9w
cy5kZTAeFw0xMzEwMTExMjUxMjRaFw0xNDEwMTExMjUxMjRaMG8xCzAJBgNVBAYT
AkRFMQ8wDQYDVQQIEwZCZXJsaW4xDzANBgNVBAcTBkJlcmxpbjEPMA0GA1UEChMG
WmVuT3BzMRMwEQYDVQQLEwpPcGVyYXRpb25zMRgwFgYDVQQDEw93aWtpLnplbm9w
cy5uZXQwggEiMA0GCSqGSIb3DQEBAQUAA4IBDwAwggEKAoIBAQCr/J5kdNintULv
FXZh6pmQqoxUCptn3zauRmDo610dHs/o13IbiIdijWN9T9NeojjYMlsnZNEZQCbB
96/L5o+pxUisyfvowETi+n96hwW/XvJxxExFeDkENaltM20U77lpbqdnHMjdChcn
syFcUHxO+jnd5UPBbANuMTm9ak8DYM7wL7VsDgaprvNGjO5zY3TqK/nyGYb7lxEw
rpYuxTiN3VJW3VW9kJpRlGCOHr43pE9YRD4pUSQD3RQq2fNisxQWUZnTDkyPHtFO
keMfTI1clWCHvsn7IE9QkZoHnGix51XgTsPKZoH2iBVW714ZjfFnS128SBlPX/ro
hNh/EvWXAgMBAAGjTTBLMAkGA1UdEwQCMAAwHQYDVR0OBBYEFLoeUN2jlh4Zy4I8
Nsy0v8WRqpqFMB8GA1UdIwQYMBaAFE9NZBbTCzAMluOG6NIPaCDP0NzNMA0GCSqG
SIb3DQEBBQUAA4ICAQCwZpTsQK+/ResRAvCPQqsZ/9Q9VP6cJmwCK1MulbIw8/gx
OMGwDnTohEkD5Ya9sXbfdjXzszJMo946Co7W++DyccntCp+VbdsY4TRwg2lTDNJb
Q30jX60dEiovlYP5GsiGZ+ydXUrGFqExayuUn55RzqGsrZh52n1CsZgCEmYdUR3U
xl9HT9X6koJK+4dtOssSqkb75a9OHcOWaCZz7AsTJGcPODXnry7G5HKghl0meYt6
PywXhY60yucYtK8MpwhpQubOOGkU+DmOf7oKjzsQ1aLUNdGxA1n9gw6GN3QdtEGS
zLMbCaSKgwE3N40cNE+LnK7ygJlHvl7aiDugcZKLrZMv2d5ohIxHZ7q+nQPGTXQW
NFYqfaNY+FlK595xkl8+OhwBtFaKwc5L4KrWruuwg3d4tPgQvdeQgK6PZKbeDyBa
Xn3KjaEcOgIMhS56qc04beDei0O/wBfQ1zlD2irZ0hcqsLQ1XkLKlmLExJhjWDW1
TaxNRHCjbnNQnPp5PtF5ODUwiWoF7gjyJtAUEokWCIu/ifv8a5WHGy0VrES/lh3b
PEF8kuJRwD/e8PhDePguGGbDSBItD8F6CKIRcPGghgjrOAkXNZni9yxQxT4boAOp
JqV6jXWwIcHH0AB5n8Upmbdoi+pRYHM/PJ+2+KM051GDVyEpWZAXEooO4CoCvQ==
-----END CERTIFICATE-----
