Certificate:
    Data:
        Version: 3 (0x2)
        Serial Number: 28 (0x1c)
        Signature Algorithm: sha1WithRSAEncryption
        Issuer: C=DE, ST=Berlin, L=Berlin, O=Example Com, OU=Operations, CN=Certificate Signing Authority/emailAddress=hostmaster@example.com
        Validity
            Not Before: Feb  4 16:19:23 2013 GMT
            Not After : Feb  4 16:19:23 2014 GMT
        Subject: C=DE, ST=Berlin, L=Berlin, O=Example Com, OU=Operations, CN=bocaloves.me
        Subject Public Key Info:
            Public Key Algorithm: rsaEncryption
                Public-Key: (2048 bit)
                Modulus:
                    00:f3:3b:e4:59:3c:e4:02:dc:c1:3b:62:4c:3c:ab:
                    36:96:09:4b:66:7a:22:51:5b:ae:c8:b7:3d:4c:7e:
                    f0:50:21:5b:43:7f:ec:d8:2a:10:b1:9c:cb:64:c6:
                    7f:f1:43:5f:21:51:29:00:d8:83:33:53:d8:c6:9f:
                    7f:0b:82:81:a3:e7:23:48:d8:00:d8:fa:93:ac:2d:
                    59:a0:bc:98:d5:ba:c2:6b:b0:c7:9f:79:5d:a9:46:
                    77:f8:7a:75:c1:9b:27:61:61:48:0a:b9:bd:82:a2:
                    02:80:d6:09:f7:68:1a:83:07:de:51:43:09:d1:57:
                    67:25:14:23:be:60:ee:34:cc:f4:44:f3:46:b7:3d:
                    41:ed:7a:ae:fa:93:f1:57:cb:e1:b0:02:0d:5b:70:
                    71:15:78:ca:ba:50:a3:a5:e3:ad:a3:d2:4e:b7:14:
                    d7:22:48:5a:c3:fc:7c:44:8b:0f:cc:6e:60:62:77:
                    42:85:6c:78:42:65:25:82:4b:17:39:11:b6:ae:a6:
                    a3:0a:81:76:cd:be:ee:a0:7e:70:19:7a:3d:42:ab:
                    bf:3b:41:c7:63:f9:eb:83:a4:74:db:f7:f5:a7:f2:
                    4d:af:18:85:0c:4b:e9:14:0c:83:96:a2:1f:fe:be:
                    7b:5d:9e:44:05:be:d8:fa:37:99:d4:fe:17:a7:a1:
                    77:87
                Exponent: 65537 (0x10001)
        X509v3 extensions:
            X509v3 Basic Constraints: 
                CA:FALSE
            X509v3 Subject Key Identifier: 
                39:95:33:FC:60:36:91:98:98:09:15:61:0D:F6:EC:24:EA:E5:9F:B1
            X509v3 Authority Key Identifier: 
                keyid:50:33:E6:BF:4D:B3:66:AA:26:97:06:9B:DB:57:24:DF:C1:49:66:E3

    Signature Algorithm: sha1WithRSAEncryption
        25:6f:62:fb:78:05:c1:52:01:f0:e0:39:f8:76:9f:73:63:58:
        90:b6:f7:58:c3:84:c9:f5:1a:a4:d6:b4:34:3c:7b:ab:a8:04:
        90:6a:a1:1a:65:ff:e7:7f:2c:ac:31:a5:83:3e:5c:8c:8a:8f:
        40:86:57:63:2d:33:9e:4a:a7:94:26:e6:9e:31:51:fa:0a:56:
        63:c8:9d:0c:c1:d7:ee:51:27:9d:17:fc:d6:8a:f6:dc:e9:92:
        eb:8c:0d:01:d9:19:ee:76:65:60:d0:7f:9f:d4:0b:20:04:64:
        f3:f7:46:8f:d8:0c:39:29:23:2b:31:e8:8f:d2:93:b5:e4:b3:
        3b:65:5b:7c:24:8e:ae:9d:a4:9f:01:a1:e7:62:3d:1c:21:08:
        72:37:b1:23:d0:bc:ee:e2:d6:48:12:5b:bd:08:52:b6:cf:da:
        1f:5c:f1:00:ab:13:e8:2b:b2:21:30:78:a2:ff:e4:fd:82:06:
        0b:83:ee:53:7b:f7:38:ec:e4:4e:e9:a2:58:08:6e:b4:b4:e8:
        53:5b:05:6b:36:8e:a0:de:fc:98:7f:52:5e:8c:44:a7:f4:63:
        70:2f:cf:e5:8f:a4:24:be:28:5f:b8:05:66:d1:f4:dc:57:42:
        db:c3:1f:b7:d2:5c:a7:2b:a9:0d:38:65:56:d1:79:8e:4d:38:
        ed:19:22:27:8a:11:e7:a6:8c:22:28:93:51:4c:99:d4:a0:2b:
        8c:9f:f0:6b:55:3f:e5:75:f1:8a:99:80:88:fd:90:17:ad:52:
        d8:11:77:33:e9:ce:1a:00:56:fe:0a:58:38:ee:d7:19:5b:7e:
        e8:58:07:32:e2:76:9d:e7:0b:fe:4e:95:12:2c:aa:21:1e:fb:
        54:a2:99:29:f5:77:cd:20:b8:e2:82:95:dd:97:6b:a7:bc:01:
        17:e5:55:73:07:dc:cf:df:ba:8b:8d:b1:9e:71:86:35:dd:af:
        c4:40:b5:84:59:45:3d:89:9a:7a:84:91:8e:76:b5:f6:f9:68:
        cd:d8:cc:50:44:83:17:8a:3f:d4:2d:9d:20:0c:64:7c:a9:ab:
        77:37:9c:fb:a9:7b:7d:66:b0:76:86:30:72:eb:e8:53:b1:35:
        d1:3e:1f:21:8a:b1:25:5f:8d:b6:b4:cd:6a:0b:19:b4:91:b9:
        0c:ca:3e:ee:19:74:24:ca:b8:51:c3:d6:2f:bd:4e:20:95:9b:
        2e:57:44:80:0c:10:aa:ba:ad:d6:39:68:6a:8f:fd:07:e1:cd:
        d8:9f:22:87:8d:e2:4c:77:db:98:c3:fe:12:17:6a:8c:52:19:
        20:48:eb:05:59:49:c7:28:51:05:ef:9d:d7:d2:6f:03:3b:fa:
        04:3e:9a:51:9a:65:b3:c3
-----BEGIN CERTIFICATE-----
MIIE4zCCAsugAwIBAgIBHDANBgkqhkiG9w0BAQUFADCBqTELMAkGA1UEBhMCREUx
DzANBgNVBAgTBkJlcmxpbjEPMA0GA1UEBxMGQmVybGluMRQwEgYDVQQKEwtFeGFt
cGxlIENvbTETMBEGA1UECxMKT3BlcmF0aW9uczEmMCQGA1UEAxMdQ2VydGlmaWNh
dGUgU2lnbmluZyBBdXRob3JpdHkxJTAjBgkqhkiG9w0BCQEWFmhvc3RtYXN0ZXJA
ZXhhbXBsZS5jb20wHhcNMTMwMjA0MTYxOTIzWhcNMTQwMjA0MTYxOTIzWjBxMQsw
CQYDVQQGEwJERTEPMA0GA1UECBMGQmVybGluMQ8wDQYDVQQHEwZCZXJsaW4xFDAS
BgNVBAoTC0V4YW1wbGUgQ29tMRMwEQYDVQQLEwpPcGVyYXRpb25zMRUwEwYDVQQD
Ewxib2NhbG92ZXMubWUwggEiMA0GCSqGSIb3DQEBAQUAA4IBDwAwggEKAoIBAQDz
O+RZPOQC3ME7Ykw8qzaWCUtmeiJRW67Itz1MfvBQIVtDf+zYKhCxnMtkxn/xQ18h
USkA2IMzU9jGn38LgoGj5yNI2ADY+pOsLVmgvJjVusJrsMefeV2pRnf4enXBmydh
YUgKub2CogKA1gn3aBqDB95RQwnRV2clFCO+YO40zPRE80a3PUHteq76k/FXy+Gw
Ag1bcHEVeMq6UKOl462j0k63FNciSFrD/HxEiw/MbmBid0KFbHhCZSWCSxc5Ebau
pqMKgXbNvu6gfnAZej1Cq787Qcdj+euDpHTb9/Wn8k2vGIUMS+kUDIOWoh/+vntd
nkQFvtj6N5nU/henoXeHAgMBAAGjTTBLMAkGA1UdEwQCMAAwHQYDVR0OBBYEFDmV
M/xgNpGYmAkVYQ327CTq5Z+xMB8GA1UdIwQYMBaAFFAz5r9Ns2aqJpcGm9tXJN/B
SWbjMA0GCSqGSIb3DQEBBQUAA4ICAQAlb2L7eAXBUgHw4Dn4dp9zY1iQtvdYw4TJ
9Rqk1rQ0PHurqASQaqEaZf/nfyysMaWDPlyMio9AhldjLTOeSqeUJuaeMVH6ClZj
yJ0MwdfuUSedF/zWivbc6ZLrjA0B2RnudmVg0H+f1AsgBGTz90aP2Aw5KSMrMeiP
0pO15LM7ZVt8JI6unaSfAaHnYj0cIQhyN7Ej0Lzu4tZIElu9CFK2z9ofXPEAqxPo
K7IhMHii/+T9ggYLg+5Te/c47ORO6aJYCG60tOhTWwVrNo6g3vyYf1JejESn9GNw
L8/lj6QkvihfuAVm0fTcV0Lbwx+30lynK6kNOGVW0XmOTTjtGSInihHnpowiKJNR
TJnUoCuMn/BrVT/ldfGKmYCI/ZAXrVLYEXcz6c4aAFb+Clg47tcZW37oWAcy4nad
5wv+TpUSLKohHvtUopkp9XfNILjigpXdl2unvAEX5VVzB9zP37qLjbGecYY13a/E
QLWEWUU9iZp6hJGOdrX2+WjN2MxQRIMXij/ULZ0gDGR8qat3N5z7qXt9ZrB2hjBy
6+hTsTXRPh8hirElX422tM1qCxm0kbkMyj7uGXQkyrhRw9YvvU4glZsuV0SADBCq
uq3WOWhqj/0H4c3YnyKHjeJMd9uYw/4SF2qMUhkgSOsFWUnHKFEF753X0m8DO/oE
PppRmmWzww==
-----END CERTIFICATE-----
