Certificate:
    Data:
        Version: 3 (0x2)
        Serial Number: 29 (0x1d)
        Signature Algorithm: sha1WithRSAEncryption
        Issuer: C=DE, ST=Berlin, L=Berlin, O=Example Com, OU=Operations, CN=Certificate Signing Authority/emailAddress=hostmaster@example.com
        Validity
            Not Before: Feb 10 16:24:57 2013 GMT
            Not After : Feb 10 16:24:57 2014 GMT
        Subject: C=DE, ST=Berlin, L=Berlin, O=Example Com, OU=Operations, CN=www.bocaloves.me
        Subject Public Key Info:
            Public Key Algorithm: rsaEncryption
                Public-Key: (2048 bit)
                Modulus:
                    00:e6:b1:43:72:12:b8:53:a7:c3:fd:50:29:65:a6:
                    42:f4:a4:86:81:eb:61:d3:b3:00:cb:b5:7b:b6:05:
                    aa:6b:40:66:4c:40:a0:53:ad:e5:89:2f:7d:bf:ae:
                    d3:4f:1d:bf:88:84:9d:2e:23:a5:ff:18:38:eb:b6:
                    4a:03:ac:c9:23:6c:d4:b3:af:f8:01:57:3d:75:e8:
                    e5:0b:f5:be:fc:b6:ff:17:a2:e4:46:eb:b2:a7:5d:
                    02:98:a5:49:f0:5e:eb:ee:ae:4d:35:56:35:d6:8a:
                    7d:cd:67:00:cc:a1:a2:65:a0:a6:f7:4f:b5:4e:40:
                    16:d4:4d:3f:8b:fb:5c:6e:b5:b7:5d:98:09:8b:f9:
                    3f:a5:a0:01:4a:10:4b:31:a7:8d:cb:99:8e:3d:97:
                    8e:fd:a1:44:cf:61:4d:02:7c:c6:ff:e8:ec:2e:7b:
                    0c:07:92:2d:26:5a:ed:65:6e:3b:48:72:02:58:be:
                    be:66:ad:52:da:76:3c:f7:e1:3a:bd:4e:04:e0:57:
                    a7:43:93:20:ec:df:38:24:d8:46:fa:06:14:2f:58:
                    c1:83:bc:fd:21:72:35:db:87:27:f5:2c:a4:03:e6:
                    3a:24:77:12:b3:76:ca:6d:3c:72:09:8f:83:cf:42:
                    7f:4a:cc:17:ee:c6:f2:b6:dd:35:73:0d:45:00:80:
                    1d:87
                Exponent: 65537 (0x10001)
        X509v3 extensions:
            X509v3 Basic Constraints: 
                CA:FALSE
            X509v3 Subject Key Identifier: 
                A5:90:70:1F:07:24:A8:27:53:46:24:D1:DF:07:B9:D8:8E:D3:8A:B0
            X509v3 Authority Key Identifier: 
                keyid:50:33:E6:BF:4D:B3:66:AA:26:97:06:9B:DB:57:24:DF:C1:49:66:E3

    Signature Algorithm: sha1WithRSAEncryption
        20:69:9f:f0:56:84:f9:1c:ba:02:a1:6c:cb:0a:04:29:86:1a:
        a2:ff:92:92:00:9b:04:c9:cd:00:fc:40:86:fd:f0:7d:3b:6e:
        42:73:5b:9d:18:8e:14:09:4e:78:c5:90:0f:9c:38:e0:fc:dc:
        12:41:df:dd:18:6b:69:a2:8d:c8:77:30:d1:90:7e:25:87:e3:
        9a:65:17:ac:69:55:11:cf:0b:ee:07:8f:50:a6:d0:46:85:0b:
        e4:87:a1:e9:af:55:cd:60:b7:dd:ea:0e:3c:6b:f4:95:fe:1c:
        47:90:98:99:1d:69:49:b3:9e:53:e0:a2:57:9a:a0:da:5e:88:
        69:5a:b2:d2:f3:20:41:2d:15:89:dd:da:e4:24:58:22:40:57:
        ec:87:87:a1:0b:f2:02:a5:bf:70:72:24:9a:2c:5b:c5:d1:49:
        c5:b3:99:b9:40:56:8c:9d:af:aa:3e:67:0f:5c:bd:c7:68:15:
        7d:43:c7:02:48:06:6e:87:98:61:c0:25:61:ec:58:d5:ae:c0:
        35:c2:37:d5:43:95:12:a6:90:5d:ae:bc:fb:a9:f2:f8:da:c8:
        1e:d2:52:3a:9a:1f:d7:2c:0f:ae:05:29:e4:ec:06:f2:67:02:
        dc:d5:00:a3:42:d4:30:24:de:83:26:16:9a:b0:da:d5:76:8a:
        56:13:8f:5a:90:f4:02:cf:32:42:77:be:f9:e1:f6:b1:bc:5f:
        e6:bb:79:68:87:f2:ba:1e:7b:46:b9:0e:d9:40:b0:1f:88:9f:
        ed:5a:9b:9e:33:59:33:89:f0:e8:af:8d:a7:93:c7:a5:a1:c1:
        07:e5:f5:71:fe:e3:ec:dc:de:2f:fb:ad:dc:2b:3e:d0:f9:53:
        74:31:ac:ee:55:05:d3:ba:bf:5e:3c:24:95:2b:5d:6f:d1:57:
        74:cf:ac:61:f8:45:31:81:75:31:32:35:47:26:cf:b8:eb:df:
        9f:9c:18:4f:b0:93:a2:a7:33:67:14:fd:48:29:6c:3b:d8:32:
        95:ab:82:87:ad:4e:7f:00:2c:06:40:87:86:74:69:ac:82:87:
        a7:7e:20:93:a1:30:d6:d5:78:41:f3:5b:41:bf:ba:d7:1d:a7:
        4a:f2:c9:78:ab:e8:69:51:55:fd:8c:5a:90:97:d2:67:4e:9c:
        d2:99:08:b4:de:2d:2a:b8:84:fe:69:bd:58:7f:58:a7:42:68:
        01:6c:67:50:31:5d:1d:92:e9:4f:5e:54:35:ee:1f:1e:72:b9:
        6d:1e:9a:91:9f:3d:b4:fb:65:28:15:1b:06:8e:be:35:d8:30:
        c4:86:96:ea:6e:3a:1e:4e:57:ca:d4:ea:29:84:6d:63:e0:d9:
        3b:c4:15:46:50:fb:9b:36
-----BEGIN CERTIFICATE-----
MIIE5zCCAs+gAwIBAgIBHTANBgkqhkiG9w0BAQUFADCBqTELMAkGA1UEBhMCREUx
DzANBgNVBAgTBkJlcmxpbjEPMA0GA1UEBxMGQmVybGluMRQwEgYDVQQKEwtFeGFt
cGxlIENvbTETMBEGA1UECxMKT3BlcmF0aW9uczEmMCQGA1UEAxMdQ2VydGlmaWNh
dGUgU2lnbmluZyBBdXRob3JpdHkxJTAjBgkqhkiG9w0BCQEWFmhvc3RtYXN0ZXJA
ZXhhbXBsZS5jb20wHhcNMTMwMjEwMTYyNDU3WhcNMTQwMjEwMTYyNDU3WjB1MQsw
CQYDVQQGEwJERTEPMA0GA1UECBMGQmVybGluMQ8wDQYDVQQHEwZCZXJsaW4xFDAS
BgNVBAoTC0V4YW1wbGUgQ29tMRMwEQYDVQQLEwpPcGVyYXRpb25zMRkwFwYDVQQD
ExB3d3cuYm9jYWxvdmVzLm1lMIIBIjANBgkqhkiG9w0BAQEFAAOCAQ8AMIIBCgKC
AQEA5rFDchK4U6fD/VApZaZC9KSGgeth07MAy7V7tgWqa0BmTECgU63liS99v67T
Tx2/iISdLiOl/xg467ZKA6zJI2zUs6/4AVc9dejlC/W+/Lb/F6LkRuuyp10CmKVJ
8F7r7q5NNVY11op9zWcAzKGiZaCm90+1TkAW1E0/i/tcbrW3XZgJi/k/paABShBL
MaeNy5mOPZeO/aFEz2FNAnzG/+jsLnsMB5ItJlrtZW47SHICWL6+Zq1S2nY89+E6
vU4E4FenQ5Mg7N84JNhG+gYUL1jBg7z9IXI124cn9SykA+Y6JHcSs3bKbTxyCY+D
z0J/SswX7sbytt01cw1FAIAdhwIDAQABo00wSzAJBgNVHRMEAjAAMB0GA1UdDgQW
BBSlkHAfBySoJ1NGJNHfB7nYjtOKsDAfBgNVHSMEGDAWgBRQM+a/TbNmqiaXBpvb
VyTfwUlm4zANBgkqhkiG9w0BAQUFAAOCAgEAIGmf8FaE+Ry6AqFsywoEKYYaov+S
kgCbBMnNAPxAhv3wfTtuQnNbnRiOFAlOeMWQD5w44PzcEkHf3RhraaKNyHcw0ZB+
JYfjmmUXrGlVEc8L7gePUKbQRoUL5Ieh6a9VzWC33eoOPGv0lf4cR5CYmR1pSbOe
U+CiV5qg2l6IaVqy0vMgQS0Vid3a5CRYIkBX7IeHoQvyAqW/cHIkmixbxdFJxbOZ
uUBWjJ2vqj5nD1y9x2gVfUPHAkgGboeYYcAlYexY1a7ANcI31UOVEqaQXa68+6ny
+NrIHtJSOpof1ywPrgUp5OwG8mcC3NUAo0LUMCTegyYWmrDa1XaKVhOPWpD0As8y
Qne++eH2sbxf5rt5aIfyuh57RrkO2UCwH4if7VqbnjNZM4nw6K+Np5PHpaHBB+X1
cf7j7NzeL/ut3Cs+0PlTdDGs7lUF07q/XjwklStdb9FXdM+sYfhFMYF1MTI1RybP
uOvfn5wYT7CToqczZxT9SClsO9gylauCh61OfwAsBkCHhnRprIKHp34gk6Ew1tV4
QfNbQb+61x2nSvLJeKvoaVFV/YxakJfSZ06c0pkItN4tKriE/mm9WH9Yp0JoAWxn
UDFdHZLpT15UNe4fHnK5bR6akZ89tPtlKBUbBo6+NdgwxIaW6m46Hk5XytTqKYRt
Y+DZO8QVRlD7mzY=
-----END CERTIFICATE-----
