Certificate:
    Data:
        Version: 3 (0x2)
        Serial Number: 30 (0x1e)
    Signature Algorithm: sha1WithRSAEncryption
        Issuer: C=DE, ST=Berlin, L=Berlin, O=ZenOps, OU=Operations, CN=Certificate Signing Authority/emailAddress=hostmaster@zenops.de
        Validity
            Not Before: Oct 20 13:52:09 2013 GMT
            Not After : Oct 20 13:52:09 2014 GMT
        Subject: C=DE, ST=Berlin, L=Berlin, O=ZenOps, OU=Operations, CN=www.schilder-versand.com
        Subject Public Key Info:
            Public Key Algorithm: rsaEncryption
                Public-Key: (2048 bit)
                Modulus:
                    00:be:52:16:9c:27:aa:65:99:99:ad:6f:fa:98:59:
                    3b:dd:82:4b:d4:f1:06:ef:0e:f7:2b:18:32:a7:11:
                    32:57:ce:88:22:4c:5e:7c:2e:a8:bd:c0:09:3b:a0:
                    08:47:2a:de:0e:c5:b2:3a:22:fa:4a:85:ac:fd:99:
                    d2:ab:eb:1a:90:95:1a:39:12:34:bd:62:1c:1c:1c:
                    06:cc:e7:b1:20:32:d4:72:08:2f:62:b8:e3:cf:42:
                    8b:48:31:60:58:8b:78:c6:68:7f:3b:6f:8e:3b:17:
                    37:99:93:5a:24:77:17:de:95:11:5a:fd:0d:da:68:
                    6f:7d:8d:7e:f9:b7:23:d8:59:7c:29:76:56:6a:50:
                    c7:44:22:3a:07:17:0a:14:cb:2c:99:1c:34:cb:d5:
                    44:db:e9:9c:70:4c:f3:42:a7:08:31:1d:25:5f:ed:
                    f5:23:b1:8e:bd:aa:56:e9:c0:8a:13:1b:0e:e2:91:
                    62:49:55:06:f7:74:6c:a6:fd:2e:ae:bc:c7:2f:99:
                    2b:f8:7d:de:a3:6d:ac:fe:c8:76:f0:ea:f9:4a:7c:
                    ad:a5:09:37:64:81:47:56:b2:12:d5:64:b0:ad:6d:
                    94:d6:15:b8:da:cf:d2:ce:f5:a6:75:ac:b2:be:af:
                    28:b9:74:67:2a:d7:d1:e5:de:9f:8d:4d:89:85:66:
                    2f:4b
                Exponent: 65537 (0x10001)
        X509v3 extensions:
            X509v3 Basic Constraints: 
                CA:FALSE
            X509v3 Subject Key Identifier: 
                88:46:DD:07:BD:DB:88:E6:05:BF:FC:25:0B:71:2B:98:CB:F2:3C:A0
            X509v3 Authority Key Identifier: 
                keyid:4F:4D:64:16:D3:0B:30:0C:96:E3:86:E8:D2:0F:68:20:CF:D0:DC:CD

    Signature Algorithm: sha1WithRSAEncryption
         39:6f:26:86:99:e8:88:23:5e:2a:e3:5d:0d:07:0f:c9:e6:9e:
         71:83:a3:74:7b:b0:32:1a:78:73:a1:03:14:7c:a2:86:f5:5a:
         57:c5:90:dc:7b:6b:2d:14:0e:7c:3a:56:75:19:58:8d:cd:94:
         0a:5b:63:28:6a:ba:97:9b:23:ca:db:33:00:45:0f:0a:72:1a:
         52:d2:52:41:1f:2c:19:55:4e:1b:c1:61:ba:98:6a:e7:32:60:
         d9:a2:ac:89:bf:1b:8f:e8:52:25:be:8e:f5:22:07:4e:cf:23:
         59:d1:c8:28:36:17:2a:82:cd:df:ae:db:55:d6:a8:67:6e:1f:
         6f:1e:a3:88:1c:78:c6:d9:dc:75:18:31:f9:0f:a8:ca:05:39:
         c2:45:ea:04:7c:64:7e:dd:06:b6:da:18:cc:32:71:49:9c:8b:
         68:08:c7:39:10:f3:d2:a3:be:e2:ad:a4:97:97:d9:33:aa:0b:
         c5:e5:72:5b:50:4b:06:f4:50:b3:80:3c:9b:f9:c7:d5:35:bb:
         c5:26:80:ab:28:2b:17:6d:68:24:7d:75:6b:5f:66:81:2c:2d:
         42:3c:5b:3b:35:2f:e5:30:36:6f:59:75:72:a9:d4:d7:c9:1d:
         67:72:d4:9e:4f:aa:0b:aa:ec:04:24:44:04:78:48:c5:c0:97:
         af:2d:b5:f2:b1:14:10:1b:85:d4:e1:73:20:e8:b7:09:4f:54:
         36:35:92:fc:89:93:68:9d:2b:75:1d:a3:43:a1:ef:0b:30:c3:
         41:67:7e:d7:79:50:76:45:d8:59:5c:e2:3f:45:81:5f:dd:70:
         3a:39:48:7b:f3:ab:a8:8b:4a:61:ce:45:d6:b6:01:a1:30:79:
         c2:da:9d:13:4b:c1:29:f8:2f:cc:cd:47:0b:8d:16:3a:a4:d2:
         60:db:c2:38:7d:c9:bc:da:23:93:0a:fb:c8:0a:dd:32:60:1f:
         b1:44:5d:98:c7:0b:dd:91:e4:23:05:2d:46:d3:49:fe:e0:1d:
         11:7f:d0:17:ad:9a:cc:92:4a:6a:66:aa:bf:fe:a6:2c:ec:50:
         ba:55:5c:c4:ea:2c:c7:6d:a7:36:54:50:d8:6a:6e:66:d0:ef:
         bb:23:b7:39:8c:d7:02:fd:4d:eb:62:17:dc:a5:17:06:a6:63:
         f6:cc:19:1c:9b:8a:91:6f:5b:15:8e:c9:37:15:8a:a5:82:9a:
         cf:8d:d8:db:ab:15:d0:af:45:0e:c6:e2:1b:ba:7c:5e:02:4f:
         16:94:b2:3e:c6:f8:f1:9e:3f:96:02:1a:c9:0a:5e:88:fc:98:
         fd:6f:c2:f5:3c:3b:be:6a:fb:d8:1c:6c:d4:83:49:9f:67:63:
         03:cb:af:03:c5:82:98:53
-----BEGIN CERTIFICATE-----
MIIE4zCCAsugAwIBAgIBHjANBgkqhkiG9w0BAQUFADCBojELMAkGA1UEBhMCREUx
DzANBgNVBAgTBkJlcmxpbjEPMA0GA1UEBxMGQmVybGluMQ8wDQYDVQQKEwZaZW5P
cHMxEzARBgNVBAsTCk9wZXJhdGlvbnMxJjAkBgNVBAMTHUNlcnRpZmljYXRlIFNp
Z25pbmcgQXV0aG9yaXR5MSMwIQYJKoZIhvcNAQkBFhRob3N0bWFzdGVyQHplbm9w
cy5kZTAeFw0xMzEwMjAxMzUyMDlaFw0xNDEwMjAxMzUyMDlaMHgxCzAJBgNVBAYT
AkRFMQ8wDQYDVQQIEwZCZXJsaW4xDzANBgNVBAcTBkJlcmxpbjEPMA0GA1UEChMG
WmVuT3BzMRMwEQYDVQQLEwpPcGVyYXRpb25zMSEwHwYDVQQDExh3d3cuc2NoaWxk
ZXItdmVyc2FuZC5jb20wggEiMA0GCSqGSIb3DQEBAQUAA4IBDwAwggEKAoIBAQC+
UhacJ6plmZmtb/qYWTvdgkvU8QbvDvcrGDKnETJXzogiTF58Lqi9wAk7oAhHKt4O
xbI6IvpKhaz9mdKr6xqQlRo5EjS9YhwcHAbM57EgMtRyCC9iuOPPQotIMWBYi3jG
aH87b447FzeZk1okdxfelRFa/Q3aaG99jX75tyPYWXwpdlZqUMdEIjoHFwoUyyyZ
HDTL1UTb6ZxwTPNCpwgxHSVf7fUjsY69qlbpwIoTGw7ikWJJVQb3dGym/S6uvMcv
mSv4fd6jbaz+yHbw6vlKfK2lCTdkgUdWshLVZLCtbZTWFbjaz9LO9aZ1rLK+ryi5
dGcq19Hl3p+NTYmFZi9LAgMBAAGjTTBLMAkGA1UdEwQCMAAwHQYDVR0OBBYEFIhG
3Qe924jmBb/8JQtxK5jL8jygMB8GA1UdIwQYMBaAFE9NZBbTCzAMluOG6NIPaCDP
0NzNMA0GCSqGSIb3DQEBBQUAA4ICAQA5byaGmeiII14q410NBw/J5p5xg6N0e7Ay
GnhzoQMUfKKG9VpXxZDce2stFA58OlZ1GViNzZQKW2MoarqXmyPK2zMARQ8KchpS
0lJBHywZVU4bwWG6mGrnMmDZoqyJvxuP6FIlvo71IgdOzyNZ0cgoNhcqgs3frttV
1qhnbh9vHqOIHHjG2dx1GDH5D6jKBTnCReoEfGR+3Qa22hjMMnFJnItoCMc5EPPS
o77iraSXl9kzqgvF5XJbUEsG9FCzgDyb+cfVNbvFJoCrKCsXbWgkfXVrX2aBLC1C
PFs7NS/lMDZvWXVyqdTXyR1nctSeT6oLquwEJEQEeEjFwJevLbXysRQQG4XU4XMg
6LcJT1Q2NZL8iZNonSt1HaNDoe8LMMNBZ37XeVB2RdhZXOI/RYFf3XA6OUh786uo
i0phzkXWtgGhMHnC2p0TS8Ep+C/MzUcLjRY6pNJg28I4fcm82iOTCvvICt0yYB+x
RF2YxwvdkeQjBS1G00n+4B0Rf9AXrZrMkkpqZqq//qYs7FC6VVzE6izHbac2VFDY
am5m0O+7I7c5jNcC/U3rYhfcpRcGpmP2zBkcm4qRb1sVjsk3FYqlgprPjdjbqxXQ
r0UOxuIbunxeAk8WlLI+xvjxnj+WAhrJCl6I/Jj9b8L1PDu+avvYHGzUg0mfZ2MD
y68DxYKYUw==
-----END CERTIFICATE-----
