Certificate:
    Data:
        Version: 3 (0x2)
        Serial Number: 30 (0x1e)
    Signature Algorithm: sha1WithRSAEncryption
        Issuer: C=DE, ST=Berlin, L=Berlin, O=Example Com, OU=Operations, CN=Certificate Signing Authority/emailAddress=hostmaster@example.com
        Validity
            Not Before: Feb 14 09:30:06 2013 GMT
            Not After : Feb 14 09:30:06 2014 GMT
        Subject: C=DE, ST=Berlin, L=Berlin, O=Example Com, OU=Operations, CN=zeus.xnull.de
        Subject Public Key Info:
            Public Key Algorithm: rsaEncryption
                Public-Key: (2048 bit)
                Modulus:
                    00:c5:20:f6:26:ab:f2:f7:6d:fd:0f:2f:54:b2:36:
                    6d:a5:e2:ef:0b:27:ab:07:41:15:1a:3b:4d:21:65:
                    3c:1c:52:cd:51:1d:16:dd:ee:f1:9e:47:68:cd:b8:
                    ae:02:41:c0:17:56:43:1a:86:df:8e:ba:80:1f:49:
                    6d:c5:00:04:29:d0:74:3f:67:fc:87:8e:c0:61:8e:
                    a8:85:1f:c9:49:f2:e6:e9:c5:43:87:f6:96:bc:32:
                    53:9c:86:de:97:8a:98:94:6d:eb:b2:81:6d:ca:59:
                    42:ce:37:90:5d:5b:ae:2b:1b:5d:d3:9d:1a:56:26:
                    6b:92:36:f9:81:bc:03:44:4b:57:88:ce:4b:73:4c:
                    49:2f:56:92:12:34:c7:00:3e:4e:35:6c:45:2c:50:
                    3f:59:8f:02:cc:44:39:ec:6f:af:c0:4a:37:78:3a:
                    ce:7f:99:74:e1:76:99:e4:a6:48:a4:0c:59:ce:a8:
                    09:47:e1:8c:49:fe:65:68:fb:6d:c5:63:d6:0e:ce:
                    c2:bd:4a:b9:4b:01:70:73:3e:a5:d0:29:c2:99:f7:
                    a0:0c:59:39:d4:68:c9:80:52:93:87:1e:0b:da:6e:
                    94:05:48:16:9a:03:f1:d5:34:3c:9a:e4:35:5a:73:
                    dc:71:e1:b1:cb:5d:d7:93:a7:a2:40:ae:c2:4d:1d:
                    7d:e9
                Exponent: 65537 (0x10001)
        X509v3 extensions:
            X509v3 Basic Constraints: 
                CA:FALSE
            X509v3 Subject Key Identifier: 
                A0:75:6E:00:32:AE:CB:44:B5:16:42:C0:E1:55:3F:58:6E:DC:A9:63
            X509v3 Authority Key Identifier: 
                keyid:50:33:E6:BF:4D:B3:66:AA:26:97:06:9B:DB:57:24:DF:C1:49:66:E3

    Signature Algorithm: sha1WithRSAEncryption
         05:3b:31:1e:b5:a6:b3:dd:08:94:eb:b2:4c:66:f8:3c:56:5a:
         06:6f:b7:2d:b7:9c:0c:3e:94:bb:4b:80:21:f5:0d:bd:a6:2b:
         da:d7:e0:2d:0a:0f:f7:a1:b5:ff:8d:04:4a:31:d0:02:89:0e:
         39:6f:70:eb:4f:47:b4:d4:82:ca:7e:3e:b2:f5:9a:db:f4:69:
         ec:3b:bc:bc:ac:8d:9f:27:41:11:b5:ef:7f:ed:e7:ee:c4:68:
         24:b2:e9:bb:c9:98:0b:35:01:1f:75:4c:6a:e2:69:8a:e1:1f:
         42:46:aa:40:63:de:28:fc:6c:2a:38:3d:fc:ea:72:30:45:c5:
         cf:02:74:bc:1e:88:7b:9d:f3:db:f9:3b:97:24:7f:65:93:b7:
         d4:81:fe:b4:1c:29:88:6e:f4:ac:4f:c7:af:2b:c6:68:1c:8d:
         59:35:d6:8b:01:c2:fe:46:5c:2d:4b:dd:c5:19:2b:54:bd:c9:
         5f:e2:f4:a1:38:ea:84:54:30:05:82:d2:11:7b:96:52:c7:6f:
         76:5f:55:13:1c:5b:26:0d:03:08:eb:8c:62:c2:f3:e6:97:77:
         dc:b6:82:8e:5c:de:c3:e2:30:93:6f:be:fe:46:fe:e3:68:5b:
         aa:fd:98:f5:bf:e9:55:6e:a1:b8:43:5d:67:6b:e9:78:de:2c:
         17:9e:7f:3e:ba:0d:ff:44:0a:62:7a:ac:1f:5a:21:f5:8f:e8:
         4f:7d:11:bd:24:ad:3f:24:91:a3:a9:4d:91:b3:ba:45:f8:c2:
         2f:e4:d3:69:57:1b:64:ab:e2:d8:4c:1d:8d:84:69:48:21:f3:
         4a:67:81:d8:3c:38:c0:7b:06:da:63:e4:80:2d:d8:20:ef:41:
         67:a5:d2:0f:7b:6f:9f:da:ff:4c:15:73:b1:79:22:cb:71:01:
         d6:0a:70:a3:be:ca:85:d3:ca:de:bc:83:fa:63:8a:a6:18:98:
         56:2e:2b:22:a2:03:c7:3b:cf:bd:0e:41:8f:ac:e5:e0:69:ca:
         3f:4c:0a:c2:0d:b8:76:f8:fc:8d:2e:e5:e5:1e:a4:ae:e0:7a:
         ad:8f:be:da:b5:24:59:9f:6f:b3:ad:35:99:94:83:75:6e:49:
         55:fc:bf:4c:4d:2c:24:70:93:e5:d1:e0:9b:94:db:64:7a:79:
         26:ee:5a:3a:2f:62:7f:93:7b:15:03:b3:c5:de:c4:32:1e:a1:
         fd:f5:54:ed:10:ac:3c:16:4d:ed:ff:f4:99:b8:50:9e:0b:40:
         f2:b1:c8:51:c2:e9:7b:c6:24:06:b0:88:f2:59:e5:29:d6:60:
         3a:60:e0:5b:98:20:d1:52:8f:fc:f6:46:6d:ed:2f:36:fc:a8:
         54:d9:71:9a:56:51:d5:fe
-----BEGIN CERTIFICATE-----
MIIE5DCCAsygAwIBAgIBHjANBgkqhkiG9w0BAQUFADCBqTELMAkGA1UEBhMCREUx
DzANBgNVBAgTBkJlcmxpbjEPMA0GA1UEBxMGQmVybGluMRQwEgYDVQQKEwtFeGFt
cGxlIENvbTETMBEGA1UECxMKT3BlcmF0aW9uczEmMCQGA1UEAxMdQ2VydGlmaWNh
dGUgU2lnbmluZyBBdXRob3JpdHkxJTAjBgkqhkiG9w0BCQEWFmhvc3RtYXN0ZXJA
ZXhhbXBsZS5jb20wHhcNMTMwMjE0MDkzMDA2WhcNMTQwMjE0MDkzMDA2WjByMQsw
CQYDVQQGEwJERTEPMA0GA1UECBMGQmVybGluMQ8wDQYDVQQHEwZCZXJsaW4xFDAS
BgNVBAoTC0V4YW1wbGUgQ29tMRMwEQYDVQQLEwpPcGVyYXRpb25zMRYwFAYDVQQD
Ew16ZXVzLnhudWxsLmRlMIIBIjANBgkqhkiG9w0BAQEFAAOCAQ8AMIIBCgKCAQEA
xSD2Jqvy9239Dy9UsjZtpeLvCyerB0EVGjtNIWU8HFLNUR0W3e7xnkdozbiuAkHA
F1ZDGobfjrqAH0ltxQAEKdB0P2f8h47AYY6ohR/JSfLm6cVDh/aWvDJTnIbel4qY
lG3rsoFtyllCzjeQXVuuKxtd050aViZrkjb5gbwDREtXiM5Lc0xJL1aSEjTHAD5O
NWxFLFA/WY8CzEQ57G+vwEo3eDrOf5l04XaZ5KZIpAxZzqgJR+GMSf5laPttxWPW
Ds7CvUq5SwFwcz6l0CnCmfegDFk51GjJgFKThx4L2m6UBUgWmgPx1TQ8muQ1WnPc
ceGxy13Xk6eiQK7CTR196QIDAQABo00wSzAJBgNVHRMEAjAAMB0GA1UdDgQWBBSg
dW4AMq7LRLUWQsDhVT9YbtypYzAfBgNVHSMEGDAWgBRQM+a/TbNmqiaXBpvbVyTf
wUlm4zANBgkqhkiG9w0BAQUFAAOCAgEABTsxHrWms90IlOuyTGb4PFZaBm+3Lbec
DD6Uu0uAIfUNvaYr2tfgLQoP96G1/40ESjHQAokOOW9w609HtNSCyn4+svWa2/Rp
7Du8vKyNnydBEbXvf+3n7sRoJLLpu8mYCzUBH3VMauJpiuEfQkaqQGPeKPxsKjg9
/OpyMEXFzwJ0vB6Ie53z2/k7lyR/ZZO31IH+tBwpiG70rE/HryvGaByNWTXWiwHC
/kZcLUvdxRkrVL3JX+L0oTjqhFQwBYLSEXuWUsdvdl9VExxbJg0DCOuMYsLz5pd3
3LaCjlzew+Iwk2++/kb+42hbqv2Y9b/pVW6huENdZ2vpeN4sF55/ProN/0QKYnqs
H1oh9Y/oT30RvSStPySRo6lNkbO6RfjCL+TTaVcbZKvi2EwdjYRpSCHzSmeB2Dw4
wHsG2mPkgC3YIO9BZ6XSD3tvn9r/TBVzsXkiy3EB1gpwo77KhdPK3ryD+mOKphiY
Vi4rIqIDxzvPvQ5Bj6zl4GnKP0wKwg24dvj8jS7l5R6kruB6rY++2rUkWZ9vs601
mZSDdW5JVfy/TE0sJHCT5dHgm5TbZHp5Ju5aOi9if5N7FQOzxd7EMh6h/fVU7RCs
PBZN7f/0mbhQngtA8rHIUcLpe8YkBrCI8lnlKdZgOmDgW5gg0VKP/PZGbe0vNvyo
VNlxmlZR1f4=
-----END CERTIFICATE-----
