Certificate:
    Data:
        Version: 3 (0x2)
        Serial Number: 32 (0x20)
    Signature Algorithm: sha1WithRSAEncryption
        Issuer: C=DE, ST=Berlin, L=Berlin, O=Example Com, OU=Operations, CN=Certificate Signing Authority/emailAddress=hostmaster@example.com
        Validity
            Not Before: Mar  6 08:35:52 2013 GMT
            Not After : Mar  6 08:35:52 2014 GMT
        Subject: C=DE, ST=Berlin, L=Berlin, O=Example Com, OU=Operations, CN=kali.xnull.de
        Subject Public Key Info:
            Public Key Algorithm: rsaEncryption
                Public-Key: (2048 bit)
                Modulus:
                    00:ba:ba:33:f3:21:d3:d3:a2:ff:aa:f6:aa:73:ca:
                    dd:0e:6e:69:4e:b8:b7:03:cc:54:20:74:60:6a:3c:
                    3f:01:40:96:ed:70:14:b4:47:a4:85:4a:da:9a:1c:
                    8e:04:87:e4:31:eb:fe:d6:18:a9:53:ca:55:6a:0d:
                    31:d0:aa:6a:13:39:63:aa:b0:0d:c4:9e:73:aa:48:
                    8c:21:46:a4:93:0b:05:91:a1:0e:ee:4a:91:2b:54:
                    2c:17:e7:cb:d9:3a:1b:56:1a:bf:97:9f:38:7d:ac:
                    a6:92:08:86:f7:32:86:9b:07:5a:c5:6d:3f:e0:a9:
                    7c:1a:0f:aa:25:7c:3a:aa:64:ec:91:86:b7:dc:4e:
                    ef:ba:85:18:42:f8:0a:90:88:7a:2a:ca:4c:ad:3c:
                    61:4e:31:db:12:d7:fd:ee:67:ec:ae:b0:55:67:31:
                    be:f1:ce:a0:19:2d:7c:4f:1d:be:82:ae:ab:bc:0f:
                    57:fc:4e:a1:ad:d4:e0:c2:2a:4d:45:b5:30:d4:ca:
                    73:ab:b9:60:69:93:0b:c0:16:3b:a4:c2:89:b8:c6:
                    47:d1:26:93:31:67:0f:09:1a:9d:55:e3:5d:54:9e:
                    f0:33:ba:df:57:08:92:53:c9:90:c7:c1:ce:34:76:
                    7b:f3:5d:e1:c3:8e:e0:97:cf:54:b0:44:fc:d0:84:
                    31:e5
                Exponent: 65537 (0x10001)
        X509v3 extensions:
            X509v3 Basic Constraints: 
                CA:FALSE
            X509v3 Subject Key Identifier: 
                23:F5:28:4D:E2:9B:AA:C6:C2:00:70:84:3A:90:7A:CA:D9:61:5F:1B
            X509v3 Authority Key Identifier: 
                keyid:50:33:E6:BF:4D:B3:66:AA:26:97:06:9B:DB:57:24:DF:C1:49:66:E3

    Signature Algorithm: sha1WithRSAEncryption
         0c:69:b1:76:f5:65:e5:80:56:28:05:31:b5:e2:9a:0b:00:f4:
         8a:e9:b9:da:11:0a:fe:ef:94:b3:d3:7e:72:09:1a:bb:29:ef:
         9f:b5:39:17:3e:1b:33:62:72:6f:9c:26:57:74:81:f1:b3:7b:
         65:05:8c:7a:b0:7f:fc:96:d0:4b:01:23:ef:0a:6f:3d:1f:c4:
         26:e1:ca:c8:7a:b3:3f:2c:46:fa:0a:a9:32:35:94:b1:69:ea:
         27:ec:63:91:a8:1a:70:47:4c:49:6f:45:a9:e3:d5:ac:0e:86:
         3d:11:14:2d:87:70:bb:e4:52:e6:d1:cf:10:c4:d2:cb:c7:81:
         78:26:55:a6:2f:b2:b6:b6:0e:2e:4d:7b:74:a3:b9:4a:8e:15:
         c7:08:1f:e7:83:0f:d5:f3:1b:34:76:46:5c:12:fd:71:6c:52:
         c6:46:31:08:33:06:8f:78:80:df:06:ff:35:bf:c6:6d:4c:15:
         e3:18:89:37:44:f6:11:b5:1d:05:10:97:52:ad:5b:2c:6b:65:
         2a:7d:8f:6c:cd:fa:58:50:ee:0d:a2:d5:7f:f8:5a:19:96:07:
         ff:73:05:dc:66:4b:44:e8:8b:1f:c7:df:99:17:16:78:48:d0:
         05:65:d3:75:62:24:9a:cd:4e:a6:d8:f9:71:4a:9c:7c:56:d3:
         26:1c:59:29:55:c4:e1:d7:ad:85:4e:26:8a:d4:23:e3:d3:ba:
         1c:f4:63:c7:7b:1c:a6:7a:11:49:61:b3:df:62:ea:36:d3:47:
         2f:ed:54:59:05:e2:20:29:a7:46:53:7d:e0:d4:10:83:7e:14:
         ab:d4:58:af:f5:9f:7b:56:6f:5c:e0:71:da:b0:b9:58:fe:bd:
         b6:eb:75:3b:fa:d6:93:5d:1b:da:90:cd:a3:a3:fb:ee:f7:e9:
         cf:73:de:53:f5:be:25:8b:d1:95:89:a8:da:99:b0:db:51:4c:
         a0:79:38:df:74:65:47:92:43:f3:4a:bb:7f:46:09:e9:90:b3:
         a2:71:d5:b4:df:a3:8f:38:ff:27:23:9f:9c:48:e0:ad:16:28:
         e9:22:8d:65:99:52:5b:51:77:77:81:56:16:e2:98:43:b7:a4:
         53:5d:d0:cd:4a:3d:80:fd:9b:07:b3:6f:57:20:9b:5b:14:55:
         5b:b7:ba:f7:bf:28:04:ac:a4:9a:80:9d:e9:b4:b1:02:4e:e9:
         44:8d:e3:a0:2e:45:e0:72:ce:88:3d:7d:c3:46:26:93:7f:cb:
         49:a5:1e:6e:a5:bc:85:9b:82:76:7f:c2:b5:95:e8:4f:98:c0:
         46:eb:03:c1:e9:83:8b:d6:45:7a:22:19:36:7e:db:93:ae:88:
         99:64:81:9f:b3:8d:7d:0c
-----BEGIN CERTIFICATE-----
MIIE5DCCAsygAwIBAgIBIDANBgkqhkiG9w0BAQUFADCBqTELMAkGA1UEBhMCREUx
DzANBgNVBAgTBkJlcmxpbjEPMA0GA1UEBxMGQmVybGluMRQwEgYDVQQKEwtFeGFt
cGxlIENvbTETMBEGA1UECxMKT3BlcmF0aW9uczEmMCQGA1UEAxMdQ2VydGlmaWNh
dGUgU2lnbmluZyBBdXRob3JpdHkxJTAjBgkqhkiG9w0BCQEWFmhvc3RtYXN0ZXJA
ZXhhbXBsZS5jb20wHhcNMTMwMzA2MDgzNTUyWhcNMTQwMzA2MDgzNTUyWjByMQsw
CQYDVQQGEwJERTEPMA0GA1UECBMGQmVybGluMQ8wDQYDVQQHEwZCZXJsaW4xFDAS
BgNVBAoTC0V4YW1wbGUgQ29tMRMwEQYDVQQLEwpPcGVyYXRpb25zMRYwFAYDVQQD
Ew1rYWxpLnhudWxsLmRlMIIBIjANBgkqhkiG9w0BAQEFAAOCAQ8AMIIBCgKCAQEA
uroz8yHT06L/qvaqc8rdDm5pTri3A8xUIHRgajw/AUCW7XAUtEekhUramhyOBIfk
Mev+1hipU8pVag0x0KpqEzljqrANxJ5zqkiMIUakkwsFkaEO7kqRK1QsF+fL2Tob
Vhq/l584faymkgiG9zKGmwdaxW0/4Kl8Gg+qJXw6qmTskYa33E7vuoUYQvgKkIh6
KspMrTxhTjHbEtf97mfsrrBVZzG+8c6gGS18Tx2+gq6rvA9X/E6hrdTgwipNRbUw
1Mpzq7lgaZMLwBY7pMKJuMZH0SaTMWcPCRqdVeNdVJ7wM7rfVwiSU8mQx8HONHZ7
813hw47gl89UsET80IQx5QIDAQABo00wSzAJBgNVHRMEAjAAMB0GA1UdDgQWBBQj
9ShN4puqxsIAcIQ6kHrK2WFfGzAfBgNVHSMEGDAWgBRQM+a/TbNmqiaXBpvbVyTf
wUlm4zANBgkqhkiG9w0BAQUFAAOCAgEADGmxdvVl5YBWKAUxteKaCwD0ium52hEK
/u+Us9N+cgkauynvn7U5Fz4bM2Jyb5wmV3SB8bN7ZQWMerB//JbQSwEj7wpvPR/E
JuHKyHqzPyxG+gqpMjWUsWnqJ+xjkagacEdMSW9FqePVrA6GPREULYdwu+RS5tHP
EMTSy8eBeCZVpi+ytrYOLk17dKO5So4Vxwgf54MP1fMbNHZGXBL9cWxSxkYxCDMG
j3iA3wb/Nb/GbUwV4xiJN0T2EbUdBRCXUq1bLGtlKn2PbM36WFDuDaLVf/haGZYH
/3MF3GZLROiLH8ffmRcWeEjQBWXTdWIkms1Optj5cUqcfFbTJhxZKVXE4dethU4m
itQj49O6HPRjx3scpnoRSWGz32LqNtNHL+1UWQXiICmnRlN94NQQg34Uq9RYr/Wf
e1ZvXOBx2rC5WP69tut1O/rWk10b2pDNo6P77vfpz3PeU/W+JYvRlYmo2pmw21FM
oHk433RlR5JD80q7f0YJ6ZCzonHVtN+jjzj/JyOfnEjgrRYo6SKNZZlSW1F3d4FW
FuKYQ7ekU13QzUo9gP2bB7NvVyCbWxRVW7e6978oBKykmoCd6bSxAk7pRI3joC5F
4HLOiD19w0Ymk3/LSaUebqW8hZuCdn/CtZXoT5jARusDwemDi9ZFeiIZNn7bk66I
mWSBn7ONfQw=
-----END CERTIFICATE-----
