Certificate:
    Data:
        Version: 3 (0x2)
        Serial Number: 33 (0x21)
    Signature Algorithm: sha1WithRSAEncryption
        Issuer: C=DE, ST=Berlin, L=Berlin, O=Example Com, OU=Operations, CN=Certificate Signing Authority/emailAddress=hostmaster@example.com
        Validity
            Not Before: Mar  6 08:35:56 2013 GMT
            Not After : Mar  6 08:35:56 2014 GMT
        Subject: C=DE, ST=Berlin, L=Berlin, O=Example Com, OU=Operations, CN=nagios.zenops.net
        Subject Public Key Info:
            Public Key Algorithm: rsaEncryption
                Public-Key: (2048 bit)
                Modulus:
                    00:cb:9a:9c:0d:86:8d:43:61:7b:10:4b:2e:aa:19:
                    b1:a5:c5:96:10:35:15:34:c9:cc:a6:6d:2b:16:a9:
                    11:ae:18:c8:fc:4d:25:f7:f8:f0:65:7b:ad:43:4c:
                    8e:5c:58:d2:8c:4a:d2:53:94:97:29:a4:69:6b:8c:
                    47:1c:cf:da:10:c5:bd:c3:d5:7c:af:2f:86:f9:25:
                    5d:da:f5:48:a5:97:39:e4:15:4a:e6:2b:6c:43:47:
                    c7:a7:88:1a:92:2e:80:bc:79:8e:5b:26:d3:88:62:
                    e3:f2:a7:8e:fd:20:5a:6f:cb:9e:ce:38:84:50:5a:
                    3b:03:4d:5e:e4:e1:c2:c9:c4:6c:90:69:fa:63:b2:
                    63:97:01:aa:25:32:99:64:38:e1:70:c7:ac:10:91:
                    f9:5b:d0:0b:9b:da:76:76:43:ee:1e:4c:ca:ff:51:
                    72:b4:19:5c:c9:33:8b:52:56:91:1d:20:0e:a7:0e:
                    82:24:f1:85:ea:ed:d7:c9:ee:80:c2:31:9d:42:21:
                    2b:35:6a:4f:c6:55:3a:59:c8:5e:85:ed:61:0b:1f:
                    fe:f5:96:74:7f:1c:87:cd:ac:f0:a9:6b:7b:57:e9:
                    42:2e:df:72:ca:e5:f3:53:a1:10:33:05:74:f2:72:
                    58:54:e6:6a:98:75:12:f5:66:9d:60:f7:18:80:1a:
                    b2:9d
                Exponent: 65537 (0x10001)
        X509v3 extensions:
            X509v3 Basic Constraints: 
                CA:FALSE
            X509v3 Subject Key Identifier: 
                08:89:D4:AF:7F:7F:36:B4:E5:94:45:9F:E3:0D:0C:A9:10:A1:BA:7E
            X509v3 Authority Key Identifier: 
                keyid:50:33:E6:BF:4D:B3:66:AA:26:97:06:9B:DB:57:24:DF:C1:49:66:E3

    Signature Algorithm: sha1WithRSAEncryption
         3e:38:2d:3c:a5:13:9e:b1:97:d5:05:eb:75:52:43:56:93:a0:
         ca:7f:c0:91:98:61:c2:66:17:1f:70:af:65:e7:c4:86:5a:28:
         fb:6f:81:ae:88:07:e2:fa:b6:62:b3:02:07:09:88:1e:0e:7c:
         f3:ac:18:19:b9:a3:b8:7f:02:d0:a7:ec:43:c7:bd:b6:4b:06:
         ce:45:0c:e6:49:87:74:d8:cf:49:f0:78:57:fe:d4:c3:75:7a:
         aa:e6:69:26:fe:97:a0:94:33:56:7c:be:82:ce:20:c9:40:3a:
         ec:b7:76:2e:4f:39:65:e0:ab:87:d3:ce:46:42:02:d0:1c:40:
         ef:e8:83:2e:a7:32:5d:81:f5:30:f7:de:40:54:75:e8:45:4a:
         f1:1c:f3:ca:22:a5:48:09:85:a1:4f:b3:27:13:8c:9c:1b:02:
         14:f0:4c:b2:89:b4:58:df:2d:01:6a:69:16:3d:51:86:21:96:
         f4:5a:36:93:88:88:45:aa:77:82:53:91:a4:38:ea:b0:65:6c:
         37:ff:99:32:04:7f:45:78:5f:5c:20:6f:e1:fc:85:99:0e:f3:
         01:27:a1:0c:f9:6c:d2:e9:ac:d3:dd:7e:4b:f1:a8:d6:25:14:
         97:22:51:86:ca:70:04:5f:ee:76:40:d7:20:25:45:cd:fe:b6:
         96:25:9d:68:99:1f:4a:20:35:fd:73:82:c2:99:75:d8:a0:a2:
         2c:fd:31:84:01:ae:92:a1:98:78:4c:2d:4e:92:1a:6f:1f:75:
         76:ae:e4:89:2b:ee:d7:b8:16:b5:4c:3d:0e:ce:db:55:59:bf:
         12:39:e0:f9:32:e4:ec:c0:87:fe:1a:c4:e0:61:67:a1:24:69:
         93:60:85:67:04:8d:23:83:08:fd:b1:5a:41:bc:84:35:bf:29:
         8b:f6:a3:c0:bc:db:e4:29:45:ac:df:e7:9a:69:a5:e6:bb:8f:
         6b:2c:2e:7d:4f:ad:19:73:75:a0:31:45:0e:af:46:d0:6e:4a:
         02:7f:5f:8c:1d:90:06:8d:73:b4:31:96:15:8e:52:d6:de:2c:
         7d:a9:28:7a:b4:a8:e4:71:01:5b:95:15:01:91:12:72:21:4f:
         cb:b5:48:95:fb:ac:cb:de:5d:22:90:30:a5:9b:e7:0b:4f:89:
         55:e6:d7:31:b1:0a:27:18:2c:7f:84:51:0e:ef:a0:a2:7b:96:
         a0:10:92:b3:0e:a4:ce:85:74:9d:8a:19:df:05:50:cf:63:fa:
         91:67:37:c3:c7:26:af:93:9c:74:df:32:27:a6:f9:ae:59:47:
         aa:b8:68:0d:b7:7a:fb:2e:03:ff:ae:49:5a:05:5d:6b:6f:a5:
         b9:16:d3:ce:90:9e:da:a6
-----BEGIN CERTIFICATE-----
MIIE6DCCAtCgAwIBAgIBITANBgkqhkiG9w0BAQUFADCBqTELMAkGA1UEBhMCREUx
DzANBgNVBAgTBkJlcmxpbjEPMA0GA1UEBxMGQmVybGluMRQwEgYDVQQKEwtFeGFt
cGxlIENvbTETMBEGA1UECxMKT3BlcmF0aW9uczEmMCQGA1UEAxMdQ2VydGlmaWNh
dGUgU2lnbmluZyBBdXRob3JpdHkxJTAjBgkqhkiG9w0BCQEWFmhvc3RtYXN0ZXJA
ZXhhbXBsZS5jb20wHhcNMTMwMzA2MDgzNTU2WhcNMTQwMzA2MDgzNTU2WjB2MQsw
CQYDVQQGEwJERTEPMA0GA1UECBMGQmVybGluMQ8wDQYDVQQHEwZCZXJsaW4xFDAS
BgNVBAoTC0V4YW1wbGUgQ29tMRMwEQYDVQQLEwpPcGVyYXRpb25zMRowGAYDVQQD
ExFuYWdpb3MuemVub3BzLm5ldDCCASIwDQYJKoZIhvcNAQEBBQADggEPADCCAQoC
ggEBAMuanA2GjUNhexBLLqoZsaXFlhA1FTTJzKZtKxapEa4YyPxNJff48GV7rUNM
jlxY0oxK0lOUlymkaWuMRxzP2hDFvcPVfK8vhvklXdr1SKWXOeQVSuYrbENHx6eI
GpIugLx5jlsm04hi4/Knjv0gWm/Lns44hFBaOwNNXuThwsnEbJBp+mOyY5cBqiUy
mWQ44XDHrBCR+VvQC5vadnZD7h5Myv9RcrQZXMkzi1JWkR0gDqcOgiTxhert18nu
gMIxnUIhKzVqT8ZVOlnIXoXtYQsf/vWWdH8ch82s8Klre1fpQi7fcsrl81OhEDMF
dPJyWFTmaph1EvVmnWD3GIAasp0CAwEAAaNNMEswCQYDVR0TBAIwADAdBgNVHQ4E
FgQUCInUr39/NrTllEWf4w0MqRChun4wHwYDVR0jBBgwFoAUUDPmv02zZqomlwab
21ck38FJZuMwDQYJKoZIhvcNAQEFBQADggIBAD44LTylE56xl9UF63VSQ1aToMp/
wJGYYcJmFx9wr2XnxIZaKPtvga6IB+L6tmKzAgcJiB4OfPOsGBm5o7h/AtCn7EPH
vbZLBs5FDOZJh3TYz0nweFf+1MN1eqrmaSb+l6CUM1Z8voLOIMlAOuy3di5POWXg
q4fTzkZCAtAcQO/ogy6nMl2B9TD33kBUdehFSvEc88oipUgJhaFPsycTjJwbAhTw
TLKJtFjfLQFqaRY9UYYhlvRaNpOIiEWqd4JTkaQ46rBlbDf/mTIEf0V4X1wgb+H8
hZkO8wEnoQz5bNLprNPdfkvxqNYlFJciUYbKcARf7nZA1yAlRc3+tpYlnWiZH0og
Nf1zgsKZddigoiz9MYQBrpKhmHhMLU6SGm8fdXau5Ikr7te4FrVMPQ7O21VZvxI5
4Pky5OzAh/4axOBhZ6EkaZNghWcEjSODCP2xWkG8hDW/KYv2o8C82+QpRazf55pp
pea7j2ssLn1PrRlzdaAxRQ6vRtBuSgJ/X4wdkAaNc7QxlhWOUtbeLH2pKHq0qORx
AVuVFQGREnIhT8u1SJX7rMveXSKQMKWb5wtPiVXm1zGxCicYLH+EUQ7voKJ7lqAQ
krMOpM6FdJ2KGd8FUM9j+pFnN8PHJq+TnHTfMiem+a5ZR6q4aA23evsuA/+uSVoF
XWtvpbkW086Qntqm
-----END CERTIFICATE-----
