Certificate:
    Data:
        Version: 3 (0x2)
        Serial Number: 25 (0x19)
    Signature Algorithm: sha1WithRSAEncryption
        Issuer: C=DE, ST=Berlin, L=Berlin, O=ZenOps, OU=Operations, CN=Certificate Signing Authority/emailAddress=hostmaster@zenops.de
        Validity
            Not Before: Sep  5 09:50:38 2013 GMT
            Not After : Sep  5 09:50:38 2014 GMT
        Subject: C=DE, ST=Berlin, L=Berlin, O=ZenOps, OU=Operations, CN=mtroesken
        Subject Public Key Info:
            Public Key Algorithm: rsaEncryption
                Public-Key: (2048 bit)
                Modulus:
                    00:ce:30:eb:1f:2d:b2:b5:7e:18:2a:30:89:a5:93:
                    81:cb:28:f6:4e:e1:6a:6c:0d:ff:6e:ff:06:6f:c0:
                    1d:ae:88:23:83:9e:bc:13:89:2a:bd:9c:d5:57:4d:
                    33:d0:07:8e:d9:b1:6c:db:ec:50:30:af:c1:5a:31:
                    ea:9c:49:ac:90:58:3b:35:aa:b7:25:e7:fc:21:96:
                    d5:15:24:fe:b8:85:fe:66:f6:33:ce:28:f5:6d:93:
                    cf:56:e1:29:77:6e:02:04:8b:07:86:22:5f:40:08:
                    5e:8f:df:fa:79:28:6a:d8:8c:ed:5d:91:b6:7e:bd:
                    1a:29:ca:a0:9f:70:c9:a4:af:8d:46:90:0f:af:ad:
                    30:e4:ff:f5:96:50:86:98:13:a5:2a:49:18:5b:ca:
                    92:aa:3b:74:7f:f4:f1:4f:f9:3d:71:1e:cb:6c:2d:
                    2e:0c:e4:ff:88:c0:27:ba:3c:ce:31:5f:ea:88:de:
                    af:bd:15:21:e9:56:a4:ac:b0:dc:0a:36:56:ca:86:
                    87:e1:a5:49:64:8a:b7:26:e3:4f:cb:48:ba:bf:89:
                    fe:41:2d:94:de:60:ff:98:7f:55:3f:27:d6:04:d1:
                    86:eb:9c:23:68:63:40:93:09:d7:5e:63:da:88:14:
                    36:1b:cf:e9:ec:2a:31:14:f8:af:6e:4b:53:75:5c:
                    57:71
                Exponent: 65537 (0x10001)
        X509v3 extensions:
            X509v3 Basic Constraints: 
                CA:FALSE
            X509v3 Subject Key Identifier: 
                26:2C:3D:7A:A0:00:BC:8C:DA:D2:8D:87:C5:1E:E6:48:8B:81:40:0B
            X509v3 Authority Key Identifier: 
                keyid:4F:4D:64:16:D3:0B:30:0C:96:E3:86:E8:D2:0F:68:20:CF:D0:DC:CD

    Signature Algorithm: sha1WithRSAEncryption
         01:98:aa:8c:e1:cc:6c:b4:5b:28:ec:26:c8:20:f5:72:32:c8:
         95:13:ca:26:72:28:b1:7e:d8:29:a1:78:4c:f6:45:48:92:c4:
         bc:47:78:8f:82:f8:f0:86:f8:f2:8e:d7:e6:ce:67:4a:cd:33:
         12:70:11:59:d4:55:d5:d6:5f:2b:56:eb:d3:81:a7:78:b4:a5:
         7d:c1:8a:35:c3:71:a6:f4:2b:64:fc:2f:08:87:f1:55:14:7b:
         74:c4:53:a4:5e:9f:91:50:53:cf:5e:be:3d:c3:7b:1a:c7:f7:
         2d:55:4d:24:64:10:56:1a:dc:8c:3a:ea:60:bf:11:19:bc:81:
         72:bb:1b:64:ce:39:a4:bd:87:90:af:c8:75:15:9a:71:d1:27:
         dc:7f:45:0f:07:be:f7:e7:68:d2:9e:7e:79:c8:59:23:57:06:
         1a:f8:6e:5b:b4:d5:9c:f7:cd:27:e9:a5:bf:23:90:b7:9c:38:
         1d:be:a2:4b:4e:f8:0a:23:9c:c3:a0:98:be:b5:42:11:bb:6e:
         1c:8e:14:2b:08:0c:b1:0e:29:25:28:a6:0d:0a:6c:ae:f5:24:
         95:7f:4a:11:c9:4f:06:68:1a:87:df:1a:5f:47:7c:f8:59:08:
         58:4c:01:d4:f3:5f:ac:0d:e2:7f:80:68:4f:81:e7:f0:59:cb:
         c0:e7:1c:8e:3d:c5:e9:08:b0:dd:27:38:d4:09:59:15:70:44:
         a8:91:3e:40:a3:d1:df:05:34:04:e0:3f:d1:5d:d5:fd:b6:50:
         e5:dd:6f:64:88:35:86:36:96:87:af:ed:bd:08:47:db:54:d4:
         ed:10:41:57:5b:42:ff:15:a5:05:44:dd:e6:fa:d9:29:08:97:
         d7:f2:2d:ef:11:23:be:e4:9a:01:68:a1:cc:ad:38:05:d3:12:
         df:7d:f7:49:e7:f6:45:91:77:50:47:1a:b8:04:c0:5a:66:bc:
         6e:f5:91:55:ae:c8:b9:a3:90:c1:55:53:95:c5:8e:a5:d2:ff:
         9f:d8:2d:4f:32:c9:4c:3b:4e:3d:02:55:0d:8b:70:ed:ca:c7:
         c0:58:95:eb:04:cb:92:2c:42:4a:2e:11:4a:d1:22:68:50:4a:
         41:d6:41:eb:1a:7d:65:c6:32:31:a6:22:22:e2:7d:04:00:bd:
         3e:6e:7a:1a:b4:d5:9b:8d:6f:ec:ff:30:e1:0e:c8:d7:93:ca:
         d4:87:f5:e3:17:80:f0:47:36:80:9d:fe:bf:68:73:13:f2:e5:
         68:d9:6d:ef:32:b8:27:c3:89:66:12:93:dc:e3:35:82:1f:a1:
         6b:5e:a4:14:09:0c:6a:50:84:98:93:f6:0f:41:82:fa:be:d2:
         c6:3e:cb:f4:38:fe:3d:07
-----BEGIN CERTIFICATE-----
MIIE1DCCArygAwIBAgIBGTANBgkqhkiG9w0BAQUFADCBojELMAkGA1UEBhMCREUx
DzANBgNVBAgTBkJlcmxpbjEPMA0GA1UEBxMGQmVybGluMQ8wDQYDVQQKEwZaZW5P
cHMxEzARBgNVBAsTCk9wZXJhdGlvbnMxJjAkBgNVBAMTHUNlcnRpZmljYXRlIFNp
Z25pbmcgQXV0aG9yaXR5MSMwIQYJKoZIhvcNAQkBFhRob3N0bWFzdGVyQHplbm9w
cy5kZTAeFw0xMzA5MDUwOTUwMzhaFw0xNDA5MDUwOTUwMzhaMGkxCzAJBgNVBAYT
AkRFMQ8wDQYDVQQIEwZCZXJsaW4xDzANBgNVBAcTBkJlcmxpbjEPMA0GA1UEChMG
WmVuT3BzMRMwEQYDVQQLEwpPcGVyYXRpb25zMRIwEAYDVQQDEwltdHJvZXNrZW4w
ggEiMA0GCSqGSIb3DQEBAQUAA4IBDwAwggEKAoIBAQDOMOsfLbK1fhgqMImlk4HL
KPZO4WpsDf9u/wZvwB2uiCODnrwTiSq9nNVXTTPQB47ZsWzb7FAwr8FaMeqcSayQ
WDs1qrcl5/whltUVJP64hf5m9jPOKPVtk89W4Sl3bgIEiweGIl9ACF6P3/p5KGrY
jO1dkbZ+vRopyqCfcMmkr41GkA+vrTDk//WWUIaYE6UqSRhbypKqO3R/9PFP+T1x
HstsLS4M5P+IwCe6PM4xX+qI3q+9FSHpVqSssNwKNlbKhofhpUlkircm40/LSLq/
if5BLZTeYP+Yf1U/J9YE0YbrnCNoY0CTCddeY9qIFDYbz+nsKjEU+K9uS1N1XFdx
AgMBAAGjTTBLMAkGA1UdEwQCMAAwHQYDVR0OBBYEFCYsPXqgALyM2tKNh8Ue5kiL
gUALMB8GA1UdIwQYMBaAFE9NZBbTCzAMluOG6NIPaCDP0NzNMA0GCSqGSIb3DQEB
BQUAA4ICAQABmKqM4cxstFso7CbIIPVyMsiVE8omciixftgpoXhM9kVIksS8R3iP
gvjwhvjyjtfmzmdKzTMScBFZ1FXV1l8rVuvTgad4tKV9wYo1w3Gm9Ctk/C8Ih/FV
FHt0xFOkXp+RUFPPXr49w3sax/ctVU0kZBBWGtyMOupgvxEZvIFyuxtkzjmkvYeQ
r8h1FZpx0Sfcf0UPB77352jSnn55yFkjVwYa+G5btNWc980n6aW/I5C3nDgdvqJL
TvgKI5zDoJi+tUIRu24cjhQrCAyxDiklKKYNCmyu9SSVf0oRyU8GaBqH3xpfR3z4
WQhYTAHU81+sDeJ/gGhPgefwWcvA5xyOPcXpCLDdJzjUCVkVcESokT5Ao9HfBTQE
4D/RXdX9tlDl3W9kiDWGNpaHr+29CEfbVNTtEEFXW0L/FaUFRN3m+tkpCJfX8i3v
ESO+5JoBaKHMrTgF0xLfffdJ5/ZFkXdQRxq4BMBaZrxu9ZFVrsi5o5DBVVOVxY6l
0v+f2C1PMslMO049AlUNi3DtysfAWJXrBMuSLEJKLhFK0SJoUEpB1kHrGn1lxjIx
piIi4n0EAL0+bnoatNWbjW/s/zDhDsjXk8rUh/XjF4DwRzaAnf6/aHMT8uVo2W3v
Mrgnw4lmEpPc4zWCH6FrXqQUCQxqUISYk/YPQYL6vtLGPsv0OP49Bw==
-----END CERTIFICATE-----
