Certificate:
    Data:
        Version: 3 (0x2)
        Serial Number: 22 (0x16)
    Signature Algorithm: sha1WithRSAEncryption
        Issuer: C=DE, ST=Berlin, L=Berlin, O=ZenOps, OU=Operations, CN=Certificate Signing Authority/emailAddress=hostmaster@zenops.de
        Validity
            Not Before: Jul 20 12:08:17 2013 GMT
            Not After : Jul 20 12:08:17 2014 GMT
        Subject: C=DE, ST=Berlin, L=Berlin, O=ZenOps, OU=Operations, CN=nepal.bohmeyer-schuster.com
        Subject Public Key Info:
            Public Key Algorithm: rsaEncryption
                Public-Key: (2048 bit)
                Modulus:
                    00:c8:d9:af:b4:95:2b:6c:ab:a8:62:73:91:43:7f:
                    96:d8:79:57:d3:87:ab:46:c0:af:0f:a4:5e:a8:aa:
                    bf:c9:60:f5:a5:c8:62:81:a0:7b:73:27:6f:d5:3a:
                    59:49:c8:88:5a:18:b1:d2:0e:64:48:a3:eb:8a:c8:
                    5a:a5:76:ca:d2:83:3b:58:5d:87:2a:6b:32:d9:f0:
                    18:06:25:55:02:2b:d5:27:9b:18:7a:f9:42:a9:e2:
                    a3:c9:05:43:cc:bb:85:c8:60:a6:6d:c3:b6:4f:4a:
                    8e:22:f1:37:2a:5d:e5:17:34:25:cb:65:95:13:8e:
                    6b:04:fb:6b:de:2b:41:2a:3c:09:ec:5b:7c:ef:6a:
                    bc:82:5f:77:ce:5f:8e:82:b3:68:96:c8:2e:b5:66:
                    e6:8a:71:23:2b:14:1b:b1:7d:f9:15:f7:ca:29:b9:
                    38:7f:b6:99:41:17:38:fb:24:51:f1:01:b4:44:a5:
                    77:60:3a:00:03:a3:22:3c:77:73:79:d2:e7:f2:34:
                    da:bb:5b:0a:1a:a0:36:d9:dc:4a:4e:1f:66:c3:f3:
                    b6:d9:4e:f8:98:c3:e8:d7:f6:84:a4:03:06:ed:4e:
                    47:c9:d0:9f:c7:da:5b:fc:9e:e9:a5:d1:65:42:27:
                    2a:3d:12:59:9b:f3:4a:f3:dc:af:87:12:a2:f0:47:
                    4f:79
                Exponent: 65537 (0x10001)
        X509v3 extensions:
            X509v3 Basic Constraints: 
                CA:FALSE
            X509v3 Subject Key Identifier: 
                7C:C0:6D:32:50:F4:8E:2E:B6:C5:AA:95:E8:64:B3:0A:BC:A3:A5:F3
            X509v3 Authority Key Identifier: 
                keyid:4F:4D:64:16:D3:0B:30:0C:96:E3:86:E8:D2:0F:68:20:CF:D0:DC:CD

    Signature Algorithm: sha1WithRSAEncryption
         6e:e9:e5:1f:a3:71:da:36:ec:54:50:c1:2c:2e:fd:3a:28:b4:
         1d:db:f0:0f:2e:4e:6f:cf:f2:3f:aa:33:d9:29:62:84:30:e0:
         f3:01:36:df:a8:39:c9:77:7f:9c:f1:17:07:57:37:2e:fb:88:
         30:ca:8a:79:86:c7:43:b4:02:33:bf:ab:21:90:8a:ca:de:45:
         7a:e2:b5:e6:46:5b:ea:c6:d7:e9:59:df:21:f4:89:73:70:c3:
         40:7d:6f:c1:6f:3a:d7:ed:da:6f:b9:3b:bd:b2:48:2a:d9:35:
         51:64:b0:74:06:6c:54:3b:d8:2c:b7:33:ec:ca:a6:d6:5c:1c:
         9e:a1:8d:bc:40:88:0d:a9:67:c0:73:f8:86:f7:10:22:6a:f0:
         32:b1:89:99:ac:72:4f:6f:4e:bf:46:93:5a:6c:ba:a8:b0:db:
         f0:de:57:d6:75:77:88:a8:25:3e:ce:56:65:1c:9a:5e:70:70:
         9b:51:14:3b:6e:e9:cb:8a:26:e3:bc:52:34:c6:37:88:ff:79:
         c3:ed:8e:87:9a:a5:06:e0:a8:51:2f:59:2b:1e:f2:1a:b8:e6:
         80:e6:61:2a:f4:66:ee:d2:35:bd:d6:bb:76:f2:72:ae:de:68:
         4c:e1:b1:64:7c:6f:a8:df:2a:75:db:b4:4b:b1:a2:11:06:6c:
         f1:2e:3c:c9:f3:fe:5c:3b:b8:1f:ba:ef:3f:ce:3f:e9:e4:6c:
         f0:72:1d:c3:2d:2a:af:84:ef:e2:b3:92:5d:b0:3a:68:ca:2c:
         6e:80:e2:2b:68:72:b8:77:e7:8e:0b:70:bf:91:c9:c1:d4:1e:
         53:a1:fd:81:71:e5:1f:87:5a:8e:db:77:a4:26:02:be:b0:dd:
         65:3a:c7:7a:38:56:cd:62:e8:e7:d6:06:f7:0e:97:04:fe:e5:
         6a:54:fe:50:30:94:e7:98:e1:bf:cf:b9:e2:6f:66:09:5e:6e:
         fa:30:51:27:e2:c9:fd:f1:21:87:52:17:bd:9b:75:35:9c:66:
         96:28:4d:c9:e4:22:e7:e7:f7:e5:52:a0:31:aa:e3:b6:1c:c4:
         c8:cf:ab:49:a6:e7:f9:ed:e2:54:e6:93:99:78:c0:05:2f:18:
         96:b7:da:37:36:55:fc:51:a2:98:be:d1:1f:1a:b1:32:30:02:
         e7:e0:51:2a:49:b1:f9:ca:b1:77:5a:0f:fb:12:e5:74:ef:7e:
         57:06:65:c0:77:eb:95:8e:42:f5:c1:2d:85:46:25:c0:15:85:
         b6:b2:29:14:c3:a2:1d:b4:14:3c:9d:ca:78:79:c3:f3:6e:49:
         22:58:90:47:86:34:52:b3:52:00:ab:47:2b:86:22:e0:08:1f:
         ce:e4:44:9c:d6:f6:9c:6f
-----BEGIN CERTIFICATE-----
MIIE5jCCAs6gAwIBAgIBFjANBgkqhkiG9w0BAQUFADCBojELMAkGA1UEBhMCREUx
DzANBgNVBAgTBkJlcmxpbjEPMA0GA1UEBxMGQmVybGluMQ8wDQYDVQQKEwZaZW5P
cHMxEzARBgNVBAsTCk9wZXJhdGlvbnMxJjAkBgNVBAMTHUNlcnRpZmljYXRlIFNp
Z25pbmcgQXV0aG9yaXR5MSMwIQYJKoZIhvcNAQkBFhRob3N0bWFzdGVyQHplbm9w
cy5kZTAeFw0xMzA3MjAxMjA4MTdaFw0xNDA3MjAxMjA4MTdaMHsxCzAJBgNVBAYT
AkRFMQ8wDQYDVQQIEwZCZXJsaW4xDzANBgNVBAcTBkJlcmxpbjEPMA0GA1UEChMG
WmVuT3BzMRMwEQYDVQQLEwpPcGVyYXRpb25zMSQwIgYDVQQDExtuZXBhbC5ib2ht
ZXllci1zY2h1c3Rlci5jb20wggEiMA0GCSqGSIb3DQEBAQUAA4IBDwAwggEKAoIB
AQDI2a+0lStsq6hic5FDf5bYeVfTh6tGwK8PpF6oqr/JYPWlyGKBoHtzJ2/VOllJ
yIhaGLHSDmRIo+uKyFqldsrSgztYXYcqazLZ8BgGJVUCK9Unmxh6+UKp4qPJBUPM
u4XIYKZtw7ZPSo4i8TcqXeUXNCXLZZUTjmsE+2veK0EqPAnsW3zvaryCX3fOX46C
s2iWyC61ZuaKcSMrFBuxffkV98opuTh/tplBFzj7JFHxAbREpXdgOgADoyI8d3N5
0ufyNNq7WwoaoDbZ3EpOH2bD87bZTviYw+jX9oSkAwbtTkfJ0J/H2lv8numl0WVC
Jyo9Elmb80rz3K+HEqLwR095AgMBAAGjTTBLMAkGA1UdEwQCMAAwHQYDVR0OBBYE
FHzAbTJQ9I4utsWqlehkswq8o6XzMB8GA1UdIwQYMBaAFE9NZBbTCzAMluOG6NIP
aCDP0NzNMA0GCSqGSIb3DQEBBQUAA4ICAQBu6eUfo3HaNuxUUMEsLv06KLQd2/AP
Lk5vz/I/qjPZKWKEMODzATbfqDnJd3+c8RcHVzcu+4gwyop5hsdDtAIzv6shkIrK
3kV64rXmRlvqxtfpWd8h9IlzcMNAfW/BbzrX7dpvuTu9skgq2TVRZLB0BmxUO9gs
tzPsyqbWXByeoY28QIgNqWfAc/iG9xAiavAysYmZrHJPb06/RpNabLqosNvw3lfW
dXeIqCU+zlZlHJpecHCbURQ7bunLiibjvFI0xjeI/3nD7Y6HmqUG4KhRL1krHvIa
uOaA5mEq9Gbu0jW91rt28nKu3mhM4bFkfG+o3yp127RLsaIRBmzxLjzJ8/5cO7gf
uu8/zj/p5Gzwch3DLSqvhO/is5JdsDpoyixugOIraHK4d+eOC3C/kcnB1B5Tof2B
ceUfh1qO23ekJgK+sN1lOsd6OFbNYujn1gb3DpcE/uVqVP5QMJTnmOG/z7nib2YJ
Xm76MFEn4sn98SGHUhe9m3U1nGaWKE3J5CLn5/flUqAxquO2HMTIz6tJpuf57eJU
5pOZeMAFLxiWt9o3NlX8UaKYvtEfGrEyMALn4FEqSbH5yrF3Wg/7EuV0735XBmXA
d+uVjkL1wS2FRiXAFYW2sikUw6IdtBQ8ncp4ecPzbkkiWJBHhjRSs1IAq0crhiLg
CB/O5ESc1vacbw==
-----END CERTIFICATE-----
