Certificate:
    Data:
        Version: 3 (0x2)
        Serial Number: 15 (0xf)
    Signature Algorithm: sha1WithRSAEncryption
        Issuer: C=DE, ST=Berlin, L=Berlin, O=ZenOps, OU=Operations, CN=Certificate Signing Authority/emailAddress=hostmaster@zenops.de
        Validity
            Not Before: Mar 18 08:21:50 2013 GMT
            Not After : Mar 18 08:21:50 2014 GMT
        Subject: C=DE, ST=Berlin, L=Berlin, O=ZenOps, OU=Operations, CN=soto.zenops.net
        Subject Public Key Info:
            Public Key Algorithm: rsaEncryption
                Public-Key: (2048 bit)
                Modulus:
                    00:ce:4f:35:ec:15:6d:62:20:d0:bb:90:de:27:e8:
                    33:fa:a9:5e:4e:29:7e:ef:70:06:ae:52:ab:38:63:
                    0a:f9:88:1d:45:78:51:ab:54:3a:20:57:be:f2:78:
                    d7:4e:8d:1e:d8:8d:c7:30:47:e6:6f:19:84:e6:cc:
                    60:96:ce:f4:c0:4b:53:46:ac:cc:82:31:6a:a8:1a:
                    51:3c:97:67:1f:90:d9:c8:8c:b2:e6:aa:7d:da:bc:
                    65:41:56:c3:c3:03:1e:16:b6:b0:61:c5:9b:b4:60:
                    61:1c:f8:02:65:a1:ff:e6:c6:d6:99:b5:ce:cf:f1:
                    73:26:de:47:9f:c7:ab:d4:bd:88:32:e9:af:a9:dd:
                    ad:24:be:1c:89:31:73:bf:28:9b:2f:ef:a4:fe:41:
                    38:06:61:0e:93:ae:18:7d:38:d8:c6:a8:7c:de:95:
                    91:39:ca:ad:5a:f0:bb:78:00:09:ee:8a:1d:34:fc:
                    b8:6c:f7:47:5e:e7:d8:e5:c3:7e:a5:ff:90:e3:c0:
                    1e:8a:fc:d4:d5:2f:47:51:cd:60:55:d0:c0:84:6a:
                    ed:17:11:4a:57:05:3a:41:94:38:b3:37:c8:ff:2a:
                    f5:55:11:9a:40:fb:2e:a2:af:ab:11:b4:96:f5:21:
                    4f:e4:27:53:e1:ae:bf:d6:6e:a1:73:94:6a:46:8f:
                    d4:39
                Exponent: 65537 (0x10001)
        X509v3 extensions:
            X509v3 Basic Constraints: 
                CA:FALSE
            X509v3 Subject Key Identifier: 
                16:B8:A9:AF:80:2A:AB:05:E6:57:FA:8E:3A:A7:89:78:A4:8E:4A:13
            X509v3 Authority Key Identifier: 
                keyid:4F:4D:64:16:D3:0B:30:0C:96:E3:86:E8:D2:0F:68:20:CF:D0:DC:CD

    Signature Algorithm: sha1WithRSAEncryption
         85:03:e1:af:74:0a:f5:a9:f9:b1:6b:16:87:9c:2a:31:a2:2b:
         f6:b4:5c:e9:1c:aa:4c:40:1b:11:b2:9b:c3:7e:84:c0:4e:6b:
         a9:4b:98:a6:b2:7f:0c:e9:5e:1f:cd:15:a0:12:80:bb:62:4f:
         f8:9a:11:a3:2f:bd:ae:64:b8:65:02:a2:75:7b:66:b8:c2:0f:
         9b:b7:cb:a0:26:2e:9d:1a:78:84:6f:b7:bc:7a:77:26:db:29:
         dc:59:b7:6c:c6:90:f5:a5:6a:4c:24:ec:73:09:b2:41:1e:81:
         f4:18:16:18:80:d0:37:b2:5a:b2:8f:c5:75:6a:2b:33:fc:ed:
         48:17:1e:26:6d:28:1b:e7:4d:d3:62:1e:c9:de:f9:10:3d:fe:
         d7:dc:27:18:d8:d8:46:7f:d1:e6:75:0c:89:08:18:b1:28:ea:
         b5:37:b8:8a:26:45:b8:eb:25:96:26:bd:ec:d6:68:8b:a4:d8:
         eb:76:0c:58:3a:a2:1e:01:9f:da:c3:45:28:8c:8c:32:5b:17:
         68:c8:1a:db:5b:de:cf:e4:d6:5c:33:01:7d:4a:78:90:6f:2a:
         29:de:cd:b5:87:5d:ef:0b:c8:d1:8d:0c:f2:0a:60:84:2d:23:
         89:26:0e:89:d0:a5:eb:b6:f7:f2:d3:9a:ba:71:f9:2b:0a:3f:
         4c:f7:a9:0d:e8:97:0e:a2:dd:05:c3:ba:e3:00:0e:27:22:bc:
         6d:e9:65:a9:5c:71:31:b7:f5:42:e3:19:f3:e5:09:e1:94:be:
         ec:4d:4a:c6:17:56:a3:30:43:35:99:ce:22:52:da:67:15:c8:
         6d:e2:37:89:50:18:e4:9c:87:21:ee:bb:2c:b0:ff:ff:8b:e2:
         fe:6a:e6:20:58:53:e0:b4:ef:c0:70:cf:1f:49:f0:95:9a:da:
         1f:b7:e5:80:b9:34:ae:95:d7:60:b2:48:87:ce:48:7f:58:80:
         5c:6e:8c:c8:6c:b1:9d:30:d4:a3:72:79:82:02:c2:7f:c0:8a:
         b8:ea:36:1e:44:f6:3d:82:a7:99:0e:f5:32:dc:da:31:89:25:
         18:b4:29:70:b0:2a:fd:4c:af:00:46:dc:af:76:c4:34:91:c5:
         90:1a:8b:7e:f5:18:c9:00:b5:cf:30:ab:af:8a:bf:be:31:3b:
         77:4e:2f:af:b6:89:43:73:cd:04:61:32:17:a9:94:11:1c:19:
         f2:34:12:37:fc:ce:ea:0f:3d:38:2b:7d:94:61:21:44:6f:1a:
         3e:42:c1:1c:21:ee:c4:e4:3e:80:1e:12:a1:b5:1b:ce:04:df:
         8d:1c:12:d0:70:3c:bd:e8:17:cf:37:14:f0:cd:f1:97:be:18:
         66:be:e9:13:0b:4f:33:b1
-----BEGIN CERTIFICATE-----
MIIE2jCCAsKgAwIBAgIBDzANBgkqhkiG9w0BAQUFADCBojELMAkGA1UEBhMCREUx
DzANBgNVBAgTBkJlcmxpbjEPMA0GA1UEBxMGQmVybGluMQ8wDQYDVQQKEwZaZW5P
cHMxEzARBgNVBAsTCk9wZXJhdGlvbnMxJjAkBgNVBAMTHUNlcnRpZmljYXRlIFNp
Z25pbmcgQXV0aG9yaXR5MSMwIQYJKoZIhvcNAQkBFhRob3N0bWFzdGVyQHplbm9w
cy5kZTAeFw0xMzAzMTgwODIxNTBaFw0xNDAzMTgwODIxNTBaMG8xCzAJBgNVBAYT
AkRFMQ8wDQYDVQQIEwZCZXJsaW4xDzANBgNVBAcTBkJlcmxpbjEPMA0GA1UEChMG
WmVuT3BzMRMwEQYDVQQLEwpPcGVyYXRpb25zMRgwFgYDVQQDEw9zb3RvLnplbm9w
cy5uZXQwggEiMA0GCSqGSIb3DQEBAQUAA4IBDwAwggEKAoIBAQDOTzXsFW1iINC7
kN4n6DP6qV5OKX7vcAauUqs4Ywr5iB1FeFGrVDogV77yeNdOjR7YjccwR+ZvGYTm
zGCWzvTAS1NGrMyCMWqoGlE8l2cfkNnIjLLmqn3avGVBVsPDAx4WtrBhxZu0YGEc
+AJlof/mxtaZtc7P8XMm3kefx6vUvYgy6a+p3a0kvhyJMXO/KJsv76T+QTgGYQ6T
rhh9ONjGqHzelZE5yq1a8Lt4AAnuih00/Lhs90de59jlw36l/5DjwB6K/NTVL0dR
zWBV0MCEau0XEUpXBTpBlDizN8j/KvVVEZpA+y6ir6sRtJb1IU/kJ1Phrr/WbqFz
lGpGj9Q5AgMBAAGjTTBLMAkGA1UdEwQCMAAwHQYDVR0OBBYEFBa4qa+AKqsF5lf6
jjqniXikjkoTMB8GA1UdIwQYMBaAFE9NZBbTCzAMluOG6NIPaCDP0NzNMA0GCSqG
SIb3DQEBBQUAA4ICAQCFA+GvdAr1qfmxaxaHnCoxoiv2tFzpHKpMQBsRspvDfoTA
TmupS5imsn8M6V4fzRWgEoC7Yk/4mhGjL72uZLhlAqJ1e2a4wg+bt8ugJi6dGniE
b7e8encm2yncWbdsxpD1pWpMJOxzCbJBHoH0GBYYgNA3slqyj8V1aisz/O1IFx4m
bSgb503TYh7J3vkQPf7X3CcY2NhGf9HmdQyJCBixKOq1N7iKJkW46yWWJr3s1miL
pNjrdgxYOqIeAZ/aw0UojIwyWxdoyBrbW97P5NZcMwF9SniQbyop3s21h13vC8jR
jQzyCmCELSOJJg6J0KXrtvfy05q6cfkrCj9M96kN6JcOot0Fw7rjAA4nIrxt6WWp
XHExt/VC4xnz5QnhlL7sTUrGF1ajMEM1mc4iUtpnFcht4jeJUBjknIch7rsssP//
i+L+auYgWFPgtO/AcM8fSfCVmtoft+WAuTSulddgskiHzkh/WIBcbozIbLGdMNSj
cnmCAsJ/wIq46jYeRPY9gqeZDvUy3NoxiSUYtClwsCr9TK8ARtyvdsQ0kcWQGot+
9RjJALXPMKuvir++MTt3Ti+vtolDc80EYTIXqZQRHBnyNBI3/M7qDz04K32UYSFE
bxo+QsEcIe7E5D6AHhKhtRvOBN+NHBLQcDy96BfPNxTwzfGXvhhmvukTC08zsQ==
-----END CERTIFICATE-----
