Certificate:
    Data:
        Version: 3 (0x2)
        Serial Number: 29 (0x1d)
    Signature Algorithm: sha1WithRSAEncryption
        Issuer: C=DE, ST=Berlin, L=Berlin, O=ZenOps, OU=Operations, CN=Certificate Signing Authority/emailAddress=hostmaster@zenops.de
        Validity
            Not Before: Oct 16 09:27:01 2013 GMT
            Not After : Oct 16 09:27:01 2014 GMT
        Subject: C=DE, ST=Berlin, L=Berlin, O=ZenOps, OU=Operations, CN=tboden
        Subject Public Key Info:
            Public Key Algorithm: rsaEncryption
                Public-Key: (2048 bit)
                Modulus:
                    00:9a:46:08:41:68:c8:e0:b4:43:e0:a0:d8:b2:f9:
                    86:22:6c:e5:4e:12:1a:df:03:6f:c4:e2:f9:db:46:
                    4c:d8:19:7b:8d:74:6a:aa:7d:ed:f4:93:2d:2a:d4:
                    07:53:93:77:6a:ea:13:f5:cb:3a:18:28:79:09:ff:
                    e6:14:d2:4d:bd:14:b6:2d:f9:db:fd:36:af:ab:96:
                    40:28:31:8c:99:2f:ba:f0:58:93:ca:8d:5e:e6:d2:
                    67:b7:aa:ec:38:4d:f9:cf:8c:a6:3d:64:bc:31:7d:
                    24:cb:19:3d:2a:6b:f2:26:1d:52:cc:15:85:86:ae:
                    48:17:12:d1:1e:a2:9e:f0:21:7c:91:5d:2b:53:a0:
                    d8:4c:5d:4c:77:a3:f5:76:5e:f1:b3:19:75:90:39:
                    bb:e3:e2:8b:53:e0:cc:a8:a9:2f:2e:41:2f:9d:68:
                    6b:b0:2d:99:c3:18:2a:6c:ac:9f:ac:a3:16:b5:68:
                    b3:d4:e0:04:80:2c:39:8f:23:0d:dd:0a:2c:f6:05:
                    9f:ee:19:ac:4a:17:d7:29:10:b1:c2:ff:89:da:63:
                    e3:0e:ca:79:db:5f:61:ca:06:2f:59:ef:39:a7:9e:
                    c3:41:e3:3d:dc:d7:4a:22:31:18:06:5c:6e:cb:99:
                    3f:92:2e:01:9d:31:7e:fa:13:4e:ac:9f:4e:53:c9:
                    52:9f
                Exponent: 65537 (0x10001)
        X509v3 extensions:
            X509v3 Basic Constraints: 
                CA:FALSE
            X509v3 Subject Key Identifier: 
                08:57:47:BC:EA:81:BB:CC:92:34:0D:AE:B2:57:FE:50:77:F5:17:4D
            X509v3 Authority Key Identifier: 
                keyid:4F:4D:64:16:D3:0B:30:0C:96:E3:86:E8:D2:0F:68:20:CF:D0:DC:CD

    Signature Algorithm: sha1WithRSAEncryption
         bf:ea:6d:c5:d6:60:e9:4d:52:4a:7a:67:82:67:19:c7:cc:9e:
         4e:bd:0b:3f:87:74:ff:37:8b:21:62:d5:25:2c:7e:96:f1:df:
         96:1b:07:10:ae:12:6c:38:c5:d2:b1:d0:2a:21:fc:cc:1f:4d:
         3d:4c:65:b2:89:23:d1:9f:93:90:7d:fe:22:4a:ad:d3:4b:b6:
         c7:36:7c:20:75:4f:a0:a9:56:36:d1:b0:bc:73:91:f0:60:7d:
         ed:c5:06:0b:a7:de:01:db:36:40:56:ad:98:95:03:d6:1b:dc:
         9d:5b:dd:85:bf:9c:77:a4:dd:9d:e7:fe:de:0f:3f:18:84:6a:
         61:10:2b:12:2f:2d:eb:7b:76:f9:6c:ac:d6:83:3f:2b:7d:03:
         bf:8b:67:90:28:20:9e:01:e2:f0:06:8a:bb:6a:82:11:f0:c9:
         21:be:95:1c:f2:c2:dd:53:30:28:0d:2b:71:c3:71:bc:88:e0:
         85:5f:5c:e3:72:94:af:a1:33:d7:04:31:a5:9e:1e:b5:b8:db:
         05:7b:a6:c1:0b:eb:1b:10:08:54:4d:18:68:08:d9:a8:8d:e0:
         ec:b5:05:52:46:d8:02:15:04:3d:7d:16:2d:56:39:b1:18:0a:
         78:3c:29:d8:7f:59:e9:ee:af:7b:a0:4c:73:05:36:14:c5:f3:
         3e:19:42:7c:fa:2b:f8:ed:ec:ce:a6:a4:2a:ce:8e:f0:bf:13:
         21:62:8c:32:67:40:de:e8:1b:22:4b:7b:09:5d:e2:d3:f2:a8:
         7b:ac:d1:d9:08:3a:de:af:ce:b7:bb:3a:0e:84:4e:75:42:3b:
         81:b4:53:77:d3:91:44:5d:a7:5e:4b:b1:2d:5f:63:7c:a4:49:
         5e:c5:1e:e4:76:f1:32:80:5f:fc:f9:f6:62:84:70:ce:dc:5f:
         e5:ff:26:28:f2:eb:7a:db:06:d1:1c:8b:40:8a:39:d6:b4:6a:
         66:3f:d6:79:65:06:78:22:25:33:f9:3b:c6:4c:45:09:d5:3d:
         a2:62:56:af:b4:11:43:4a:55:3d:09:5a:ad:bf:57:69:8b:41:
         70:3f:f1:c2:49:30:70:05:4e:07:4d:eb:93:f5:06:69:9f:a2:
         0a:71:84:bf:8e:ff:f5:91:47:19:cf:8c:37:2d:bd:05:84:1c:
         dc:47:fd:62:61:8c:4d:07:f9:a5:ac:86:37:fe:90:46:12:d3:
         d9:a5:cd:e3:07:0f:fc:37:49:6d:a5:06:7c:2e:a1:1e:70:c7:
         81:94:83:da:a5:e6:06:1a:51:bc:b0:77:2b:5a:a6:fa:a9:b5:
         cf:5b:12:c3:04:6d:4a:5d:a1:c3:c6:99:90:85:14:93:b7:d4:
         d9:c4:a7:02:78:c8:e6:f5
-----BEGIN CERTIFICATE-----
MIIE0TCCArmgAwIBAgIBHTANBgkqhkiG9w0BAQUFADCBojELMAkGA1UEBhMCREUx
DzANBgNVBAgTBkJlcmxpbjEPMA0GA1UEBxMGQmVybGluMQ8wDQYDVQQKEwZaZW5P
cHMxEzARBgNVBAsTCk9wZXJhdGlvbnMxJjAkBgNVBAMTHUNlcnRpZmljYXRlIFNp
Z25pbmcgQXV0aG9yaXR5MSMwIQYJKoZIhvcNAQkBFhRob3N0bWFzdGVyQHplbm9w
cy5kZTAeFw0xMzEwMTYwOTI3MDFaFw0xNDEwMTYwOTI3MDFaMGYxCzAJBgNVBAYT
AkRFMQ8wDQYDVQQIEwZCZXJsaW4xDzANBgNVBAcTBkJlcmxpbjEPMA0GA1UEChMG
WmVuT3BzMRMwEQYDVQQLEwpPcGVyYXRpb25zMQ8wDQYDVQQDEwZ0Ym9kZW4wggEi
MA0GCSqGSIb3DQEBAQUAA4IBDwAwggEKAoIBAQCaRghBaMjgtEPgoNiy+YYibOVO
EhrfA2/E4vnbRkzYGXuNdGqqfe30ky0q1AdTk3dq6hP1yzoYKHkJ/+YU0k29FLYt
+dv9Nq+rlkAoMYyZL7rwWJPKjV7m0me3quw4TfnPjKY9ZLwxfSTLGT0qa/ImHVLM
FYWGrkgXEtEeop7wIXyRXStToNhMXUx3o/V2XvGzGXWQObvj4otT4MyoqS8uQS+d
aGuwLZnDGCpsrJ+soxa1aLPU4ASALDmPIw3dCiz2BZ/uGaxKF9cpELHC/4naY+MO
ynnbX2HKBi9Z7zmnnsNB4z3c10oiMRgGXG7LmT+SLgGdMX76E06sn05TyVKfAgMB
AAGjTTBLMAkGA1UdEwQCMAAwHQYDVR0OBBYEFAhXR7zqgbvMkjQNrrJX/lB39RdN
MB8GA1UdIwQYMBaAFE9NZBbTCzAMluOG6NIPaCDP0NzNMA0GCSqGSIb3DQEBBQUA
A4ICAQC/6m3F1mDpTVJKemeCZxnHzJ5OvQs/h3T/N4shYtUlLH6W8d+WGwcQrhJs
OMXSsdAqIfzMH009TGWyiSPRn5OQff4iSq3TS7bHNnwgdU+gqVY20bC8c5HwYH3t
xQYLp94B2zZAVq2YlQPWG9ydW92Fv5x3pN2d5/7eDz8YhGphECsSLy3re3b5bKzW
gz8rfQO/i2eQKCCeAeLwBoq7aoIR8MkhvpUc8sLdUzAoDStxw3G8iOCFX1zjcpSv
oTPXBDGlnh61uNsFe6bBC+sbEAhUTRhoCNmojeDstQVSRtgCFQQ9fRYtVjmxGAp4
PCnYf1np7q97oExzBTYUxfM+GUJ8+iv47ezOpqQqzo7wvxMhYowyZ0De6BsiS3sJ
XeLT8qh7rNHZCDrer863uzoOhE51QjuBtFN305FEXadeS7EtX2N8pElexR7kdvEy
gF/8+fZihHDO3F/l/yYo8ut62wbRHItAijnWtGpmP9Z5ZQZ4IiUz+TvGTEUJ1T2i
YlavtBFDSlU9CVqtv1dpi0FwP/HCSTBwBU4HTeuT9QZpn6IKcYS/jv/1kUcZz4w3
Lb0FhBzcR/1iYYxNB/mlrIY3/pBGEtPZpc3jBw/8N0ltpQZ8LqEecMeBlIPapeYG
GlG8sHcrWqb6qbXPWxLDBG1KXaHDxpmQhRSTt9TZxKcCeMjm9Q==
-----END CERTIFICATE-----
