Certificate:
    Data:
        Version: 3 (0x2)
        Serial Number: 21 (0x15)
    Signature Algorithm: sha1WithRSAEncryption
        Issuer: C=DE, ST=Berlin, L=Berlin, O=ZenOps, OU=Operations, CN=Certificate Signing Authority/emailAddress=hostmaster@zenops.de
        Validity
            Not Before: Jul 19 19:15:01 2013 GMT
            Not After : Jul 19 19:15:01 2014 GMT
        Subject: C=DE, ST=Berlin, L=Berlin, O=ZenOps, OU=Operations, CN=web1.bohmeyer-schuster.com
        Subject Public Key Info:
            Public Key Algorithm: rsaEncryption
                Public-Key: (2048 bit)
                Modulus:
                    00:c1:d5:4c:0a:bc:c8:ec:65:4f:bf:6d:e2:f4:23:
                    26:37:88:42:c5:21:11:a0:b2:00:5d:ae:89:5e:d2:
                    c4:3f:89:0f:7c:be:83:de:64:9c:f2:91:6c:a0:48:
                    3a:1b:a6:db:65:8b:53:12:a6:d4:2c:8d:75:57:7a:
                    22:38:83:23:d6:45:1c:c3:42:0c:df:02:15:15:ad:
                    bb:0f:6c:9d:2f:4a:b3:cd:ad:01:95:ac:29:0a:78:
                    e2:b1:19:98:07:da:34:df:95:c0:80:5b:51:be:d6:
                    7f:81:10:2c:5f:ec:2c:b9:71:fc:82:de:98:ce:d1:
                    f1:e8:86:dc:60:db:00:ac:dc:b1:5e:f8:95:ce:73:
                    9f:a8:bb:45:b3:53:b8:88:75:23:74:61:e8:a1:03:
                    0d:1e:77:2d:9a:df:25:fc:5a:96:72:45:20:9a:dc:
                    a5:f3:cf:dd:0c:71:2d:da:65:48:bd:ef:b8:6b:93:
                    7b:b4:f5:4b:74:3d:11:ae:7b:74:25:82:8b:53:26:
                    77:3a:01:b2:e0:c2:30:9b:6e:8c:bb:14:dd:ac:76:
                    6f:a1:3e:85:ed:c8:6f:4e:c9:a1:89:fc:86:1c:bc:
                    fa:a8:80:66:13:d7:40:74:af:35:dd:32:ae:ae:aa:
                    7e:03:01:5d:42:da:03:4d:39:2e:c6:f1:c6:a0:7c:
                    ac:c9
                Exponent: 65537 (0x10001)
        X509v3 extensions:
            X509v3 Basic Constraints: 
                CA:FALSE
            X509v3 Subject Key Identifier: 
                4D:A5:95:2E:EB:2A:DD:F5:93:E7:2E:6D:40:14:83:61:F0:B8:42:A4
            X509v3 Authority Key Identifier: 
                keyid:4F:4D:64:16:D3:0B:30:0C:96:E3:86:E8:D2:0F:68:20:CF:D0:DC:CD

    Signature Algorithm: sha1WithRSAEncryption
         a6:c6:c4:f6:e6:24:b3:75:8e:e4:78:4a:d9:0a:cc:fe:30:cd:
         1e:ad:61:8c:28:e4:be:6f:e5:6f:15:50:d3:c9:b3:7c:60:6e:
         a8:5d:5f:1b:93:0c:13:7b:86:5f:83:fb:4c:74:94:1d:6d:56:
         f6:bb:3a:1d:5d:be:21:f9:56:cb:c3:3d:da:18:c3:85:2b:f1:
         57:6f:50:52:12:f4:29:f5:a8:e7:cb:64:9e:cc:9a:00:0e:30:
         49:95:3f:56:39:70:5d:b9:a8:0a:bc:46:84:ba:18:3d:a6:ca:
         15:34:43:fd:d1:c8:77:ef:3e:93:fd:ae:de:06:d3:cc:07:a9:
         03:d0:70:de:a4:cc:2e:23:7c:ce:e9:9c:7e:88:bf:38:30:10:
         40:b9:82:dd:82:4a:4e:23:95:81:6b:20:3c:ad:81:75:d8:12:
         f7:3f:df:fe:5e:3e:fb:d5:c3:aa:ce:c0:be:fa:30:c2:52:86:
         3a:5b:91:bc:02:91:fc:0e:3a:84:1c:05:04:ee:65:b0:52:a7:
         42:f8:15:9f:ec:47:9b:02:d9:2b:c0:7f:d7:92:12:db:e5:63:
         65:ad:f8:b3:7e:7b:31:05:38:90:b9:69:33:45:65:c8:72:d5:
         2c:87:0d:91:cd:c7:71:ff:2a:5d:81:9b:12:00:d0:de:12:32:
         4d:31:00:57:0d:b4:6b:90:3d:fb:d9:4d:bf:66:1e:e5:e7:f7:
         fd:7f:bd:0f:3e:6b:c1:60:58:d4:9b:3e:93:67:91:d8:8e:e7:
         d5:37:da:fa:75:33:1a:ad:e5:70:fa:c6:47:06:30:3b:1d:c7:
         13:81:b0:b2:13:29:51:73:ef:c1:96:20:58:0a:d0:5f:b8:c5:
         6d:ae:68:a6:27:9b:69:a1:16:d0:c0:3f:59:6e:86:e8:35:47:
         db:13:2e:60:45:1c:b3:8b:07:89:71:df:d7:b0:a1:f6:c4:72:
         56:d9:c1:2c:1a:99:9e:26:5a:4d:71:90:6e:7b:77:65:08:5c:
         2d:52:b7:fd:44:35:95:27:a3:44:45:88:d8:36:16:8b:98:72:
         e0:fc:14:1a:53:0b:f0:62:48:3c:4a:ca:8d:35:eb:06:5f:bb:
         08:43:2d:59:06:b9:84:ed:31:5c:d9:ce:fd:af:55:72:4b:19:
         5a:02:2e:6f:49:7e:40:df:4b:e6:4e:8d:d1:c5:8d:a4:e8:ef:
         b2:7d:8b:be:54:53:bf:f6:0b:cc:c9:37:c4:5d:f5:23:04:f5:
         79:a9:f7:d1:88:d7:31:c5:7f:86:72:ce:e7:4e:04:a7:ef:12:
         d2:a2:e6:62:5c:53:1c:ae:ca:ef:b4:2a:84:9a:4c:58:94:7a:
         c6:ed:2d:69:b1:d9:f5:e1
-----BEGIN CERTIFICATE-----
MIIE5TCCAs2gAwIBAgIBFTANBgkqhkiG9w0BAQUFADCBojELMAkGA1UEBhMCREUx
DzANBgNVBAgTBkJlcmxpbjEPMA0GA1UEBxMGQmVybGluMQ8wDQYDVQQKEwZaZW5P
cHMxEzARBgNVBAsTCk9wZXJhdGlvbnMxJjAkBgNVBAMTHUNlcnRpZmljYXRlIFNp
Z25pbmcgQXV0aG9yaXR5MSMwIQYJKoZIhvcNAQkBFhRob3N0bWFzdGVyQHplbm9w
cy5kZTAeFw0xMzA3MTkxOTE1MDFaFw0xNDA3MTkxOTE1MDFaMHoxCzAJBgNVBAYT
AkRFMQ8wDQYDVQQIEwZCZXJsaW4xDzANBgNVBAcTBkJlcmxpbjEPMA0GA1UEChMG
WmVuT3BzMRMwEQYDVQQLEwpPcGVyYXRpb25zMSMwIQYDVQQDExp3ZWIxLmJvaG1l
eWVyLXNjaHVzdGVyLmNvbTCCASIwDQYJKoZIhvcNAQEBBQADggEPADCCAQoCggEB
AMHVTAq8yOxlT79t4vQjJjeIQsUhEaCyAF2uiV7SxD+JD3y+g95knPKRbKBIOhum
22WLUxKm1CyNdVd6IjiDI9ZFHMNCDN8CFRWtuw9snS9Ks82tAZWsKQp44rEZmAfa
NN+VwIBbUb7Wf4EQLF/sLLlx/ILemM7R8eiG3GDbAKzcsV74lc5zn6i7RbNTuIh1
I3Rh6KEDDR53LZrfJfxalnJFIJrcpfPP3QxxLdplSL3vuGuTe7T1S3Q9Ea57dCWC
i1MmdzoBsuDCMJtujLsU3ax2b6E+he3Ib07JoYn8hhy8+qiAZhPXQHSvNd0yrq6q
fgMBXULaA005LsbxxqB8rMkCAwEAAaNNMEswCQYDVR0TBAIwADAdBgNVHQ4EFgQU
TaWVLusq3fWT5y5tQBSDYfC4QqQwHwYDVR0jBBgwFoAUT01kFtMLMAyW44bo0g9o
IM/Q3M0wDQYJKoZIhvcNAQEFBQADggIBAKbGxPbmJLN1juR4StkKzP4wzR6tYYwo
5L5v5W8VUNPJs3xgbqhdXxuTDBN7hl+D+0x0lB1tVva7Oh1dviH5VsvDPdoYw4Ur
8VdvUFIS9Cn1qOfLZJ7MmgAOMEmVP1Y5cF25qAq8RoS6GD2myhU0Q/3RyHfvPpP9
rt4G08wHqQPQcN6kzC4jfM7pnH6IvzgwEEC5gt2CSk4jlYFrIDytgXXYEvc/3/5e
PvvVw6rOwL76MMJShjpbkbwCkfwOOoQcBQTuZbBSp0L4FZ/sR5sC2SvAf9eSEtvl
Y2Wt+LN+ezEFOJC5aTNFZchy1SyHDZHNx3H/Kl2BmxIA0N4SMk0xAFcNtGuQPfvZ
Tb9mHuXn9/1/vQ8+a8FgWNSbPpNnkdiO59U32vp1Mxqt5XD6xkcGMDsdxxOBsLIT
KVFz78GWIFgK0F+4xW2uaKYnm2mhFtDAP1luhug1R9sTLmBFHLOLB4lx39ewofbE
clbZwSwamZ4mWk1xkG57d2UIXC1St/1ENZUno0RFiNg2FouYcuD8FBpTC/BiSDxK
yo016wZfuwhDLVkGuYTtMVzZzv2vVXJLGVoCLm9JfkDfS+ZOjdHFjaTo77J9i75U
U7/2C8zJN8Rd9SME9Xmp99GI1zHFf4ZyzudOBKfvEtKi5mJcUxyuyu+0KoSaTFiU
esbtLWmx2fXh
-----END CERTIFICATE-----
