Certificate:
    Data:
        Version: 3 (0x2)
        Serial Number: 27 (0x1b)
    Signature Algorithm: sha1WithRSAEncryption
        Issuer: C=DE, ST=Berlin, L=Berlin, O=ZenOps, OU=Operations, CN=Certificate Signing Authority/emailAddress=hostmaster@zenops.de
        Validity
            Not Before: Oct  9 07:21:21 2013 GMT
            Not After : Oct  9 07:21:21 2014 GMT
        Subject: C=DE, ST=Berlin, L=Berlin, O=ZenOps, OU=Operations, CN=www.cover-lounge.de
        Subject Public Key Info:
            Public Key Algorithm: rsaEncryption
                Public-Key: (2048 bit)
                Modulus:
                    00:d0:89:f7:b9:a0:5b:98:f7:72:ab:45:ff:ca:b1:
                    44:1a:30:ee:2b:c6:c8:b0:16:d7:d2:c7:e4:e4:6b:
                    9b:82:ab:61:8f:ea:78:c7:e7:ca:b5:5c:06:94:b5:
                    22:12:51:f3:67:e6:13:5f:7e:47:c2:7a:44:fc:6b:
                    71:de:6a:61:23:73:81:9a:05:fd:2a:48:d8:91:3a:
                    06:7f:72:ea:bd:b7:22:73:39:0a:c3:36:f6:fc:64:
                    9f:16:ae:0d:9b:60:a8:7f:d7:e7:1c:30:de:5c:44:
                    0c:22:28:ce:b6:d8:6d:3f:26:b3:44:3c:9d:e0:60:
                    c5:87:e4:5d:a1:5a:ed:7f:c8:22:71:c4:41:7c:dd:
                    70:59:d6:91:42:f7:5c:a7:58:68:0c:e4:53:06:bf:
                    a5:7c:9c:8b:55:43:7c:2c:56:b2:be:9c:a9:6f:12:
                    89:05:e0:94:35:63:55:11:f1:3d:9c:8e:a0:56:49:
                    08:78:2f:cb:7f:0a:58:49:a3:67:9d:41:a8:83:d0:
                    52:a5:5b:08:e6:d5:cf:39:fd:64:84:bb:60:f7:7b:
                    ba:b2:b8:7f:21:6b:d9:de:5c:69:95:75:c4:00:0b:
                    99:3d:83:e1:16:9c:d6:89:63:a1:1a:b4:0e:14:3b:
                    aa:a4:a7:6e:0e:6b:9d:91:ce:b0:a6:20:ba:ef:5e:
                    52:4d
                Exponent: 65537 (0x10001)
        X509v3 extensions:
            X509v3 Basic Constraints: 
                CA:FALSE
            X509v3 Subject Key Identifier: 
                C4:1E:E8:6E:0E:88:A5:08:99:14:F5:B4:14:47:93:0F:D8:01:D3:2C
            X509v3 Authority Key Identifier: 
                keyid:4F:4D:64:16:D3:0B:30:0C:96:E3:86:E8:D2:0F:68:20:CF:D0:DC:CD

    Signature Algorithm: sha1WithRSAEncryption
         27:8a:c8:ab:2c:d7:29:a3:15:f9:b9:c2:df:ce:3e:d2:a8:da:
         94:66:01:e0:cc:4c:90:be:ea:fe:d3:4c:61:5a:1a:01:b3:0f:
         3d:de:44:a6:70:99:34:99:3c:fa:e5:32:75:c0:b6:52:e9:aa:
         c2:48:7c:3f:b6:f1:77:79:fe:38:25:a6:4a:62:e7:14:6e:11:
         73:4b:68:73:98:14:97:68:48:1d:cc:8c:0b:bb:c2:08:fd:4a:
         a7:b6:a5:75:7b:88:7f:20:92:a9:1f:c3:d4:c6:7d:f9:e2:2c:
         55:bb:4d:40:f7:14:b1:11:75:97:f5:7c:5c:79:8e:86:47:47:
         fd:50:cc:41:33:76:99:7d:a4:ff:24:56:87:53:80:f0:cb:a6:
         53:ce:5a:1b:b9:06:50:11:10:35:99:0d:60:15:a6:84:44:45:
         79:ef:0d:06:ff:e1:16:b6:bd:f9:2d:8b:37:d2:a6:71:f4:5d:
         01:35:3e:44:05:33:72:aa:76:7c:eb:2a:99:5c:67:c2:77:b5:
         aa:4a:91:39:76:a7:3b:19:1a:2d:ef:df:b1:eb:9b:b6:08:72:
         a5:0a:99:a5:46:58:d5:67:47:97:63:8d:54:86:f5:da:41:c5:
         ae:2b:7b:11:20:be:c2:81:d7:0c:4d:76:9a:64:5c:3d:d6:d0:
         63:bc:66:5c:e5:92:c5:f5:20:25:44:61:0d:30:2b:3d:c1:76:
         e4:e0:ba:c6:bc:1f:ca:bc:35:d0:3e:e7:1a:90:20:45:30:bf:
         44:eb:94:38:15:8e:cd:b8:d9:90:81:d1:26:c3:08:9f:2c:a1:
         e1:33:ef:ae:bb:34:4a:e0:ef:07:1d:0f:7d:7b:05:99:f6:1b:
         ff:24:b2:f3:83:46:80:c2:41:ff:73:e8:54:e7:3b:c6:17:ea:
         1e:29:f9:c2:7e:41:87:47:3c:9d:9b:74:9f:24:23:70:31:49:
         93:90:3c:01:8f:04:5c:3a:d1:e7:a8:b7:0a:75:dc:b2:0d:27:
         6a:c0:5a:ce:5a:3d:9b:dd:b9:1f:bf:e4:f4:4b:47:85:88:43:
         57:31:03:7f:73:24:67:e2:41:9d:ea:fa:6a:f1:08:23:b7:90:
         e4:8f:cc:e1:97:d9:6f:07:a6:38:4c:48:aa:69:e3:b5:53:72:
         7e:11:55:e8:a5:6f:a9:8e:91:78:6a:85:a1:52:a5:1c:c4:f8:
         75:8e:02:6e:1d:58:75:a6:41:3a:01:c2:f8:4f:3f:ca:74:85:
         0e:f5:1b:e1:4c:60:c1:10:93:ec:ba:0b:9d:3d:a6:20:7a:04:
         14:38:d2:bc:bc:7d:a3:c8:02:00:b2:81:88:99:2b:ee:e7:20:
         d5:25:fa:79:33:fe:60:36
-----BEGIN CERTIFICATE-----
MIIE3jCCAsagAwIBAgIBGzANBgkqhkiG9w0BAQUFADCBojELMAkGA1UEBhMCREUx
DzANBgNVBAgTBkJlcmxpbjEPMA0GA1UEBxMGQmVybGluMQ8wDQYDVQQKEwZaZW5P
cHMxEzARBgNVBAsTCk9wZXJhdGlvbnMxJjAkBgNVBAMTHUNlcnRpZmljYXRlIFNp
Z25pbmcgQXV0aG9yaXR5MSMwIQYJKoZIhvcNAQkBFhRob3N0bWFzdGVyQHplbm9w
cy5kZTAeFw0xMzEwMDkwNzIxMjFaFw0xNDEwMDkwNzIxMjFaMHMxCzAJBgNVBAYT
AkRFMQ8wDQYDVQQIEwZCZXJsaW4xDzANBgNVBAcTBkJlcmxpbjEPMA0GA1UEChMG
WmVuT3BzMRMwEQYDVQQLEwpPcGVyYXRpb25zMRwwGgYDVQQDExN3d3cuY292ZXIt
bG91bmdlLmRlMIIBIjANBgkqhkiG9w0BAQEFAAOCAQ8AMIIBCgKCAQEA0In3uaBb
mPdyq0X/yrFEGjDuK8bIsBbX0sfk5Gubgqthj+p4x+fKtVwGlLUiElHzZ+YTX35H
wnpE/Gtx3mphI3OBmgX9KkjYkToGf3LqvbciczkKwzb2/GSfFq4Nm2Cof9fnHDDe
XEQMIijOtthtPyazRDyd4GDFh+RdoVrtf8giccRBfN1wWdaRQvdcp1hoDORTBr+l
fJyLVUN8LFayvpypbxKJBeCUNWNVEfE9nI6gVkkIeC/LfwpYSaNnnUGog9BSpVsI
5tXPOf1khLtg93u6srh/IWvZ3lxplXXEAAuZPYPhFpzWiWOhGrQOFDuqpKduDmud
kc6wpiC6715STQIDAQABo00wSzAJBgNVHRMEAjAAMB0GA1UdDgQWBBTEHuhuDoil
CJkU9bQUR5MP2AHTLDAfBgNVHSMEGDAWgBRPTWQW0wswDJbjhujSD2ggz9DczTAN
BgkqhkiG9w0BAQUFAAOCAgEAJ4rIqyzXKaMV+bnC384+0qjalGYB4MxMkL7q/tNM
YVoaAbMPPd5EpnCZNJk8+uUydcC2Uumqwkh8P7bxd3n+OCWmSmLnFG4Rc0toc5gU
l2hIHcyMC7vCCP1Kp7aldXuIfyCSqR/D1MZ9+eIsVbtNQPcUsRF1l/V8XHmOhkdH
/VDMQTN2mX2k/yRWh1OA8MumU85aG7kGUBEQNZkNYBWmhERFee8NBv/hFra9+S2L
N9KmcfRdATU+RAUzcqp2fOsqmVxnwne1qkqROXanOxkaLe/fseubtghypQqZpUZY
1WdHl2ONVIb12kHFrit7ESC+woHXDE12mmRcPdbQY7xmXOWSxfUgJURhDTArPcF2
5OC6xrwfyrw10D7nGpAgRTC/ROuUOBWOzbjZkIHRJsMInyyh4TPvrrs0SuDvBx0P
fXsFmfYb/ySy84NGgMJB/3PoVOc7xhfqHin5wn5Bh0c8nZt0nyQjcDFJk5A8AY8E
XDrR56i3CnXcsg0nasBazlo9m925H7/k9EtHhYhDVzEDf3MkZ+JBner6avEII7eQ
5I/M4ZfZbwemOExIqmnjtVNyfhFV6KVvqY6ReGqFoVKlHMT4dY4Cbh1YdaZBOgHC
+E8/ynSFDvUb4UxgwRCT7LoLnT2mIHoEFDjSvLx9o8gCALKBiJkr7ucg1SX6eTP+
YDY=
-----END CERTIFICATE-----
